SF:/Users/ivan/projects/github/esp/orion-rust/crates/orion-core/src/config.rs
FN:10,_RNvMNtCs20Ygd6RoaGo_10orion_core6configNtB2_9Direction11is_opposite
FN:20,_RNvMNtCs20Ygd6RoaGo_10orion_core6configNtB2_9Direction8opposite
FN:37,_RNvMs_NtCs20Ygd6RoaGo_10orion_core6configNtB4_4Cell3new
FN:76,_RNvNtCs20Ygd6RoaGo_10orion_core6config10wrap_index
FN:60,_RNvNtCs20Ygd6RoaGo_10orion_core6config12wrapped_cell
FN:56,_RNvNtCs20Ygd6RoaGo_10orion_core6config8on_board
FNDA:2,_RNvMNtCs20Ygd6RoaGo_10orion_core6configNtB2_9Direction11is_opposite
FNDA:18,_RNvMNtCs20Ygd6RoaGo_10orion_core6configNtB2_9Direction8opposite
FNDA:213,_RNvMs_NtCs20Ygd6RoaGo_10orion_core6configNtB4_4Cell3new
FNDA:18,_RNvNtCs20Ygd6RoaGo_10orion_core6config10wrap_index
FNDA:11,_RNvNtCs20Ygd6RoaGo_10orion_core6config12wrapped_cell
FNDA:57,_RNvNtCs20Ygd6RoaGo_10orion_core6config8on_board
FNF:6
FNH:6
DA:10,2
DA:11,1
DA:12,2
DA:18,2
DA:20,18
DA:21,18
DA:22,0
DA:23,0
DA:24,0
DA:25,18
DA:27,18
DA:37,213
DA:38,213
DA:39,213
DA:56,57
DA:57,57
DA:58,57
DA:60,11
DA:61,11
DA:62,11
DA:63,11
DA:64,0
DA:65,11
DA:66,1
DA:67,10
DA:68,11
DA:69,0
DA:70,11
DA:71,0
DA:72,11
DA:73,11
DA:74,11
DA:76,18
DA:77,18
DA:78,18
BRF:0
BRH:0
LF:35
LH:29
end_of_record
SF:/Users/ivan/projects/github/esp/orion-rust/crates/orion-core/src/flags.rs
FN:319,_RNvMNtCs20Ygd6RoaGo_10orion_core5flagsNtB2_9FlagsGame10best_score
FN:158,_RNvMNtCs20Ygd6RoaGo_10orion_core5flagsNtB2_9FlagsGame10cycle_mode
FN:279,_RNvMNtCs20Ygd6RoaGo_10orion_core5flagsNtB2_9FlagsGame11active_mode
FN:327,_RNvMNtCs20Ygd6RoaGo_10orion_core5flagsNtB2_9FlagsGame11answer_flag
FN:323,_RNvMNtCs20Ygd6RoaGo_10orion_core5flagsNtB2_9FlagsGame12current_flag
FN:380,_RNvMNtCs20Ygd6RoaGo_10orion_core5flagsNtB2_9FlagsGame12enter_paused
FN:287,_RNvMNtCs20Ygd6RoaGo_10orion_core5flagsNtB2_9FlagsGame12pause_action
FN:283,_RNvMNtCs20Ygd6RoaGo_10orion_core5flagsNtB2_9FlagsGame13result_action
FN:275,_RNvMNtCs20Ygd6RoaGo_10orion_core5flagsNtB2_9FlagsGame13selected_mode
FN:307,_RNvMNtCs20Ygd6RoaGo_10orion_core5flagsNtB2_9FlagsGame14answer_indices
FN:220,_RNvMNtCs20Ygd6RoaGo_10orion_core5flagsNtB2_9FlagsGame14confirm_answer
FN:299,_RNvMNtCs20Ygd6RoaGo_10orion_core5flagsNtB2_9FlagsGame14correct_answer
FN:291,_RNvMNtCs20Ygd6RoaGo_10orion_core5flagsNtB2_9FlagsGame15choosing_action
FN:295,_RNvMNtCs20Ygd6RoaGo_10orion_core5flagsNtB2_9FlagsGame15selected_answer
FN:175,_RNvMNtCs20Ygd6RoaGo_10orion_core5flagsNtB2_9FlagsGame16select_next_mode
FN:387,_RNvMNtCs20Ygd6RoaGo_10orion_core5flagsNtB2_9FlagsGame17resume_from_pause
FN:393,_RNvMNtCs20Ygd6RoaGo_10orion_core5flagsNtB2_9FlagsGame17set_selected_mode
FN:373,_RNvMNtCs20Ygd6RoaGo_10orion_core5flagsNtB2_9FlagsGame18cycle_pause_action
FN:263,_RNvMNtCs20Ygd6RoaGo_10orion_core5flagsNtB2_9FlagsGame19cycle_result_action
FN:303,_RNvMNtCs20Ygd6RoaGo_10orion_core5flagsNtB2_9FlagsGame19last_answer_correct
FN:171,_RNvMNtCs20Ygd6RoaGo_10orion_core5flagsNtB2_9FlagsGame20select_previous_mode
FN:179,_RNvMNtCs20Ygd6RoaGo_10orion_core5flagsNtB2_9FlagsGame21move_answer_selection
FN:209,_RNvMNtCs20Ygd6RoaGo_10orion_core5flagsNtB2_9FlagsGame22cycle_answer_selection
FN:401,_RNvMNtCs20Ygd6RoaGo_10orion_core5flagsNtB2_9FlagsGame22reset_question_history
FN:351,_RNvMNtCs20Ygd6RoaGo_10orion_core5flagsNtB2_9FlagsGame24cycle_choosing_action_up
FN:248,_RNvMNtCs20Ygd6RoaGo_10orion_core5flagsNtB2_9FlagsGame25select_next_result_action
FN:331,_RNvMNtCs20Ygd6RoaGo_10orion_core5flagsNtB2_9FlagsGame26cycle_choosing_action_down
FN:259,_RNvMNtCs20Ygd6RoaGo_10orion_core5flagsNtB2_9FlagsGame29select_previous_result_action
FN:114,_RNvMNtCs20Ygd6RoaGo_10orion_core5flagsNtB2_9FlagsGame3new
FN:315,_RNvMNtCs20Ygd6RoaGo_10orion_core5flagsNtB2_9FlagsGame5round
FN:311,_RNvMNtCs20Ygd6RoaGo_10orion_core5flagsNtB2_9FlagsGame5score
FN:271,_RNvMNtCs20Ygd6RoaGo_10orion_core5flagsNtB2_9FlagsGame5state
FN:493,_RNvNtCs20Ygd6RoaGo_10orion_core5flags15cycle_mode_from
FN:451,_RNvNtCs20Ygd6RoaGo_10orion_core5flags15flags_mode_name
FN:476,_RNvNtCs20Ygd6RoaGo_10orion_core5flags16flags_mode_index
FN:459,_RNvNtCs20Ygd6RoaGo_10orion_core5flags17flags_state_title
FN:484,_RNvNtCs20Ygd6RoaGo_10orion_core5flags21flags_mode_from_index
FN:469,_RNvNtCs20Ygd6RoaGo_10orion_core5flags24flags_result_action_name
FN:629,_RNvNtNtCs20Ygd6RoaGo_10orion_core5flags5testss_22cycle_answer_selection
FN:721,_RNvNtNtCs20Ygd6RoaGo_10orion_core5flags5testss_26cycle_pause_action_toggles
FN:768,_RNvNtNtCs20Ygd6RoaGo_10orion_core5flags5testss_26cycle_result_action_cycles
FN:792,_RNvNtNtCs20Ygd6RoaGo_10orion_core5flags5testss_26flags_mode_name_covers_all
FN:815,_RNvNtNtCs20Ygd6RoaGo_10orion_core5flags5testss_27enter_choosing_resets_state
FN:751,_RNvNtNtCs20Ygd6RoaGo_10orion_core5flags5testss_27select_result_action_cycles
FN:805,_RNvNtNtCs20Ygd6RoaGo_10orion_core5flags5testss_28flags_state_title_covers_all
FN:591,_RNvNtNtCs20Ygd6RoaGo_10orion_core5flags5testss_29select_previous_and_next_mode
FN:600,_RNvNtNtCs20Ygd6RoaGo_10orion_core5flags5testss_30move_answer_left_right_up_down
FN:564,_RNvNtNtCs20Ygd6RoaGo_10orion_core5flags5testss_31cycle_mode_cycles_through_modes
FN:695,_RNvNtNtCs20Ygd6RoaGo_10orion_core5flags5testss_33cycle_choosing_action_down_and_up
FN:744,_RNvNtNtCs20Ygd6RoaGo_10orion_core5flags5testss_34resume_from_pause_only_when_paused
FN:519,_RNvNtNtCs20Ygd6RoaGo_10orion_core5flags5testss_35answer_navigation_matches_tile_grid
FN:582,_RNvNtNtCs20Ygd6RoaGo_10orion_core5flags5testss_35cycle_mode_ignores_outside_choosing
FN:799,_RNvNtNtCs20Ygd6RoaGo_10orion_core5flags5testss_35flags_result_action_name_covers_all
FN:549,_RNvNtNtCs20Ygd6RoaGo_10orion_core5flags5testss_35quiz20_finishes_after_twenty_rounds
FN:623,_RNvNtNtCs20Ygd6RoaGo_10orion_core5flags5testss_37move_answer_ignores_when_not_question
FN:642,_RNvNtNtCs20Ygd6RoaGo_10orion_core5flags5testss_39confirm_answer_correct_increments_score
FN:576,_RNvNtNtCs20Ygd6RoaGo_10orion_core5flags5testss_39cycle_mode_returns_false_when_no_change
FN:654,_RNvNtNtCs20Ygd6RoaGo_10orion_core5flags5testss_40confirm_answer_ignores_when_not_question
FN:783,_RNvNtNtCs20Ygd6RoaGo_10orion_core5flags5testss_40select_result_action_ignores_wrong_state
FN:686,_RNvNtNtCs20Ygd6RoaGo_10orion_core5flags5testss_41finish_feedback_ignores_when_not_feedback
FN:674,_RNvNtNtCs20Ygd6RoaGo_10orion_core5flags5testss_42finish_feedback_quiz20_mid_round_continues
FN:731,_RNvNtNtCs20Ygd6RoaGo_10orion_core5flags5testss_43enter_paused_only_from_question_or_feedback
FN:661,_RNvNtNtCs20Ygd6RoaGo_10orion_core5flags5testss_46finish_feedback_practice_goes_to_next_question
FN:534,_RNvNtNtCs20Ygd6RoaGo_10orion_core5flags5testss_47death_match_wrong_answer_ends_and_persists_best
FN:504,_RNvNtNtCs20Ygd6RoaGo_10orion_core5flags5testss_49question_has_four_unique_answers_and_correct_once
FN:712,_RNvNtNtCs20Ygd6RoaGo_10orion_core5flags5testss_51cycle_choosing_action_ignores_outside_choosing_mode
FN:406,_RINvMNtCs20Ygd6RoaGo_10orion_core5flagsNtB3_9FlagsGame13next_questionNtNtB5_3rng11ScriptedRngEB5_
FN:138,_RINvMNtCs20Ygd6RoaGo_10orion_core5flagsNtB3_9FlagsGame14enter_choosingNtNtB5_5store20MemoryHighScoreStoreEB5_
FN:231,_RINvMNtCs20Ygd6RoaGo_10orion_core5flagsNtB3_9FlagsGame15finish_feedbackNtNtB5_5store20MemoryHighScoreStoreNtNtB5_3rng11ScriptedRngEB5_
FN:397,_RINvMNtCs20Ygd6RoaGo_10orion_core5flagsNtB3_9FlagsGame18refresh_best_scoreNtNtB5_5store20MemoryHighScoreStoreEB5_
FN:148,_RINvMNtCs20Ygd6RoaGo_10orion_core5flagsNtB3_9FlagsGame19start_selected_modeNtNtB5_5store20MemoryHighScoreStoreNtNtB5_3rng11ScriptedRngEB5_
FN:429,_RINvMNtCs20Ygd6RoaGo_10orion_core5flagsNtB3_9FlagsGame24select_next_correct_flagNtNtB5_3rng11ScriptedRngEB5_
FNDA:3,_RNvMNtCs20Ygd6RoaGo_10orion_core5flagsNtB2_9FlagsGame10best_score
FNDA:7,_RNvMNtCs20Ygd6RoaGo_10orion_core5flagsNtB2_9FlagsGame10cycle_mode
FNDA:12,_RNvMNtCs20Ygd6RoaGo_10orion_core5flagsNtB2_9FlagsGame11active_mode
FNDA:23,_RNvMNtCs20Ygd6RoaGo_10orion_core5flagsNtB2_9FlagsGame11answer_flag
FNDA:4,_RNvMNtCs20Ygd6RoaGo_10orion_core5flagsNtB2_9FlagsGame12current_flag
FNDA:5,_RNvMNtCs20Ygd6RoaGo_10orion_core5flagsNtB2_9FlagsGame12enter_paused
FNDA:6,_RNvMNtCs20Ygd6RoaGo_10orion_core5flagsNtB2_9FlagsGame12pause_action
FNDA:8,_RNvMNtCs20Ygd6RoaGo_10orion_core5flagsNtB2_9FlagsGame13result_action
FNDA:6,_RNvMNtCs20Ygd6RoaGo_10orion_core5flagsNtB2_9FlagsGame13selected_mode
FNDA:1,_RNvMNtCs20Ygd6RoaGo_10orion_core5flagsNtB2_9FlagsGame14answer_indices
FNDA:51,_RNvMNtCs20Ygd6RoaGo_10orion_core5flagsNtB2_9FlagsGame14confirm_answer
FNDA:12,_RNvMNtCs20Ygd6RoaGo_10orion_core5flagsNtB2_9FlagsGame14correct_answer
FNDA:15,_RNvMNtCs20Ygd6RoaGo_10orion_core5flagsNtB2_9FlagsGame15choosing_action
FNDA:69,_RNvMNtCs20Ygd6RoaGo_10orion_core5flagsNtB2_9FlagsGame15selected_answer
FNDA:1,_RNvMNtCs20Ygd6RoaGo_10orion_core5flagsNtB2_9FlagsGame16select_next_mode
FNDA:1,_RNvMNtCs20Ygd6RoaGo_10orion_core5flagsNtB2_9FlagsGame17resume_from_pause
FNDA:13,_RNvMNtCs20Ygd6RoaGo_10orion_core5flagsNtB2_9FlagsGame17set_selected_mode
FNDA:3,_RNvMNtCs20Ygd6RoaGo_10orion_core5flagsNtB2_9FlagsGame18cycle_pause_action
FNDA:1,_RNvMNtCs20Ygd6RoaGo_10orion_core5flagsNtB2_9FlagsGame19cycle_result_action
FNDA:8,_RNvMNtCs20Ygd6RoaGo_10orion_core5flagsNtB2_9FlagsGame19last_answer_correct
FNDA:1,_RNvMNtCs20Ygd6RoaGo_10orion_core5flagsNtB2_9FlagsGame20select_previous_mode
FNDA:10,_RNvMNtCs20Ygd6RoaGo_10orion_core5flagsNtB2_9FlagsGame21move_answer_selection
FNDA:8,_RNvMNtCs20Ygd6RoaGo_10orion_core5flagsNtB2_9FlagsGame22cycle_answer_selection
FNDA:36,_RNvMNtCs20Ygd6RoaGo_10orion_core5flagsNtB2_9FlagsGame22reset_question_history
FNDA:1,_RNvMNtCs20Ygd6RoaGo_10orion_core5flagsNtB2_9FlagsGame24cycle_choosing_action_up
FNDA:4,_RNvMNtCs20Ygd6RoaGo_10orion_core5flagsNtB2_9FlagsGame25select_next_result_action
FNDA:8,_RNvMNtCs20Ygd6RoaGo_10orion_core5flagsNtB2_9FlagsGame26cycle_choosing_action_down
FNDA:1,_RNvMNtCs20Ygd6RoaGo_10orion_core5flagsNtB2_9FlagsGame29select_previous_result_action
FNDA:41,_RNvMNtCs20Ygd6RoaGo_10orion_core5flagsNtB2_9FlagsGame3new
FNDA:2,_RNvMNtCs20Ygd6RoaGo_10orion_core5flagsNtB2_9FlagsGame5round
FNDA:7,_RNvMNtCs20Ygd6RoaGo_10orion_core5flagsNtB2_9FlagsGame5score
FNDA:76,_RNvMNtCs20Ygd6RoaGo_10orion_core5flagsNtB2_9FlagsGame5state
FNDA:5,_RNvNtCs20Ygd6RoaGo_10orion_core5flags15cycle_mode_from
FNDA:10,_RNvNtCs20Ygd6RoaGo_10orion_core5flags15flags_mode_name
FNDA:5,_RNvNtCs20Ygd6RoaGo_10orion_core5flags16flags_mode_index
FNDA:6,_RNvNtCs20Ygd6RoaGo_10orion_core5flags17flags_state_title
FNDA:5,_RNvNtCs20Ygd6RoaGo_10orion_core5flags21flags_mode_from_index
FNDA:6,_RNvNtCs20Ygd6RoaGo_10orion_core5flags24flags_result_action_name
FNDA:1,_RNvNtNtCs20Ygd6RoaGo_10orion_core5flags5testss_22cycle_answer_selection
FNDA:1,_RNvNtNtCs20Ygd6RoaGo_10orion_core5flags5testss_26cycle_pause_action_toggles
FNDA:1,_RNvNtNtCs20Ygd6RoaGo_10orion_core5flags5testss_26cycle_result_action_cycles
FNDA:1,_RNvNtNtCs20Ygd6RoaGo_10orion_core5flags5testss_26flags_mode_name_covers_all
FNDA:1,_RNvNtNtCs20Ygd6RoaGo_10orion_core5flags5testss_27enter_choosing_resets_state
FNDA:1,_RNvNtNtCs20Ygd6RoaGo_10orion_core5flags5testss_27select_result_action_cycles
FNDA:1,_RNvNtNtCs20Ygd6RoaGo_10orion_core5flags5testss_28flags_state_title_covers_all
FNDA:1,_RNvNtNtCs20Ygd6RoaGo_10orion_core5flags5testss_29select_previous_and_next_mode
FNDA:1,_RNvNtNtCs20Ygd6RoaGo_10orion_core5flags5testss_30move_answer_left_right_up_down
FNDA:1,_RNvNtNtCs20Ygd6RoaGo_10orion_core5flags5testss_31cycle_mode_cycles_through_modes
FNDA:1,_RNvNtNtCs20Ygd6RoaGo_10orion_core5flags5testss_33cycle_choosing_action_down_and_up
FNDA:1,_RNvNtNtCs20Ygd6RoaGo_10orion_core5flags5testss_34resume_from_pause_only_when_paused
FNDA:1,_RNvNtNtCs20Ygd6RoaGo_10orion_core5flags5testss_35answer_navigation_matches_tile_grid
FNDA:1,_RNvNtNtCs20Ygd6RoaGo_10orion_core5flags5testss_35cycle_mode_ignores_outside_choosing
FNDA:1,_RNvNtNtCs20Ygd6RoaGo_10orion_core5flags5testss_35flags_result_action_name_covers_all
FNDA:1,_RNvNtNtCs20Ygd6RoaGo_10orion_core5flags5testss_35quiz20_finishes_after_twenty_rounds
FNDA:1,_RNvNtNtCs20Ygd6RoaGo_10orion_core5flags5testss_37move_answer_ignores_when_not_question
FNDA:1,_RNvNtNtCs20Ygd6RoaGo_10orion_core5flags5testss_39confirm_answer_correct_increments_score
FNDA:1,_RNvNtNtCs20Ygd6RoaGo_10orion_core5flags5testss_39cycle_mode_returns_false_when_no_change
FNDA:1,_RNvNtNtCs20Ygd6RoaGo_10orion_core5flags5testss_40confirm_answer_ignores_when_not_question
FNDA:1,_RNvNtNtCs20Ygd6RoaGo_10orion_core5flags5testss_40select_result_action_ignores_wrong_state
FNDA:1,_RNvNtNtCs20Ygd6RoaGo_10orion_core5flags5testss_41finish_feedback_ignores_when_not_feedback
FNDA:1,_RNvNtNtCs20Ygd6RoaGo_10orion_core5flags5testss_42finish_feedback_quiz20_mid_round_continues
FNDA:1,_RNvNtNtCs20Ygd6RoaGo_10orion_core5flags5testss_43enter_paused_only_from_question_or_feedback
FNDA:1,_RNvNtNtCs20Ygd6RoaGo_10orion_core5flags5testss_46finish_feedback_practice_goes_to_next_question
FNDA:1,_RNvNtNtCs20Ygd6RoaGo_10orion_core5flags5testss_47death_match_wrong_answer_ends_and_persists_best
FNDA:1,_RNvNtNtCs20Ygd6RoaGo_10orion_core5flags5testss_49question_has_four_unique_answers_and_correct_once
FNDA:1,_RNvNtNtCs20Ygd6RoaGo_10orion_core5flags5testss_51cycle_choosing_action_ignores_outside_choosing_mode
FNDA:70,_RINvMNtCs20Ygd6RoaGo_10orion_core5flagsNtB3_9FlagsGame13next_questionNtNtB5_3rng11ScriptedRngEB5_
FNDA:7,_RINvMNtCs20Ygd6RoaGo_10orion_core5flagsNtB3_9FlagsGame14enter_choosingNtNtB5_5store20MemoryHighScoreStoreEB5_
FNDA:47,_RINvMNtCs20Ygd6RoaGo_10orion_core5flagsNtB3_9FlagsGame15finish_feedbackNtNtB5_5store20MemoryHighScoreStoreNtNtB5_3rng11ScriptedRngEB5_
FNDA:41,_RINvMNtCs20Ygd6RoaGo_10orion_core5flagsNtB3_9FlagsGame18refresh_best_scoreNtNtB5_5store20MemoryHighScoreStoreEB5_
FNDA:30,_RINvMNtCs20Ygd6RoaGo_10orion_core5flagsNtB3_9FlagsGame19start_selected_modeNtNtB5_5store20MemoryHighScoreStoreNtNtB5_3rng11ScriptedRngEB5_
FNDA:70,_RINvMNtCs20Ygd6RoaGo_10orion_core5flagsNtB3_9FlagsGame24select_next_correct_flagNtNtB5_3rng11ScriptedRngEB5_
FNF:72
FNH:72
DA:114,41
DA:115,41
DA:116,41
DA:117,41
DA:118,41
DA:119,41
DA:120,41
DA:121,41
DA:122,41
DA:123,41
DA:124,41
DA:125,41
DA:126,41
DA:127,41
DA:128,41
DA:129,41
DA:130,41
DA:131,41
DA:132,41
DA:133,41
DA:134,41
DA:135,41
DA:136,41
DA:138,7
DA:139,7
DA:140,7
DA:141,7
DA:142,7
DA:143,7
DA:144,7
DA:145,7
DA:146,7
DA:148,30
DA:149,30
DA:150,30
DA:151,30
DA:152,30
DA:153,30
DA:154,30
DA:155,30
DA:156,30
DA:158,7
DA:159,7
DA:160,2
DA:161,5
DA:162,5
DA:163,5
DA:164,0
DA:166,5
DA:167,5
DA:169,7
DA:171,1
DA:172,1
DA:173,1
DA:175,1
DA:176,1
DA:177,1
DA:179,10
DA:180,10
DA:181,1
DA:182,9
DA:183,9
DA:184,9
DA:186,1
DA:187,1
DA:188,1
DA:191,3
DA:192,2
DA:193,2
DA:196,2
DA:197,2
DA:198,2
DA:201,3
DA:202,2
DA:203,2
DA:206,9
DA:207,10
DA:209,8
DA:210,8
DA:211,1
DA:212,7
DA:213,7
DA:214,7
DA:215,7
DA:216,7
DA:217,7
DA:218,8
DA:220,51
DA:221,51
DA:222,1
DA:223,50
DA:224,50
DA:225,50
DA:226,32
DA:227,32
DA:228,50
DA:229,51
DA:231,47
DA:232,47
DA:233,1
DA:234,46
DA:235,46
DA:236,4
DA:237,4
DA:238,4
DA:239,4
DA:240,42
DA:241,42
DA:242,2
DA:243,2
DA:244,40
DA:245,40
DA:246,47
DA:248,4
DA:249,4
DA:250,1
DA:251,3
DA:252,3
DA:253,2
DA:254,1
DA:256,3
DA:257,4
DA:259,1
DA:260,1
DA:261,1
DA:263,1
DA:264,1
DA:265,0
DA:267,1
DA:269,1
DA:271,76
DA:272,76
DA:273,76
DA:275,6
DA:276,6
DA:277,6
DA:279,12
DA:280,12
DA:281,12
DA:283,8
DA:284,8
DA:285,8
DA:287,6
DA:288,6
DA:289,6
DA:291,15
DA:292,15
DA:293,15
DA:295,69
DA:296,69
DA:297,69
DA:299,12
DA:300,12
DA:301,12
DA:303,8
DA:304,8
DA:305,8
DA:307,1
DA:308,1
DA:309,1
DA:311,7
DA:312,7
DA:313,7
DA:315,2
DA:316,2
DA:317,2
DA:319,3
DA:320,3
DA:321,3
DA:323,4
DA:324,4
DA:325,4
DA:327,23
DA:328,23
DA:329,23
DA:331,8
DA:332,8
DA:333,1
DA:334,7
DA:335,6
DA:337,2
DA:340,2
DA:342,2
DA:343,1
DA:345,7
DA:346,5
DA:347,5
DA:348,7
DA:349,8
DA:351,1
DA:352,1
DA:353,0
DA:354,1
DA:355,1
DA:356,1
DA:358,0
DA:361,0
DA:364,0
DA:367,1
DA:368,0
DA:369,1
DA:370,1
DA:371,1
DA:373,3
DA:374,3
DA:375,2
DA:376,1
DA:378,3
DA:380,5
DA:381,5
DA:382,4
DA:383,4
DA:384,4
DA:385,5
DA:387,1
DA:388,1
DA:389,0
DA:390,1
DA:391,1
DA:393,13
DA:394,13
DA:395,13
DA:397,41
DA:398,41
DA:399,41
DA:401,36
DA:402,36
DA:403,36
DA:404,36
DA:406,70
DA:407,70
DA:408,70
DA:409,70
DA:410,70
DA:411,70
DA:412,280
DA:413,280
DA:414,70
DA:415,70
DA:417,251
DA:418,251
DA:419,221
DA:421,210
DA:422,210
DA:423,41
DA:427,70
DA:429,70
DA:430,70
DA:431,6
DA:432,64
DA:433,70
DA:434,70
DA:435,152
DA:436,152
DA:437,49
DA:438,103
DA:439,103
DA:440,70
DA:441,70
DA:442,33
DA:443,33
DA:445,70
DA:446,70
DA:447,70
DA:448,70
DA:451,10
DA:452,10
DA:453,5
DA:454,2
DA:455,3
DA:457,10
DA:459,6
DA:460,6
DA:461,2
DA:462,1
DA:463,1
DA:464,1
DA:465,1
DA:467,6
DA:469,6
DA:470,6
DA:471,3
DA:472,3
DA:474,6
DA:476,5
DA:477,5
DA:478,2
DA:479,2
DA:480,1
DA:482,5
DA:484,5
DA:485,5
DA:486,2
DA:487,2
DA:488,1
DA:489,0
DA:491,5
DA:493,5
DA:494,5
DA:495,5
DA:504,1
DA:505,1
DA:506,1
DA:507,1
DA:508,1
DA:510,1
DA:511,1
DA:512,1
DA:513,1
DA:514,1
DA:515,1
DA:516,1
DA:519,1
DA:520,1
DA:521,1
DA:522,1
DA:523,1
DA:525,1
DA:526,1
DA:527,1
DA:528,1
DA:529,1
DA:530,1
DA:531,1
DA:534,1
DA:535,1
DA:536,1
DA:537,1
DA:538,1
DA:539,1
DA:540,1
DA:541,1
DA:542,1
DA:544,1
DA:545,1
DA:546,1
DA:549,1
DA:550,1
DA:551,1
DA:552,1
DA:553,1
DA:554,1
DA:555,20
DA:556,20
DA:557,20
DA:558,20
DA:559,1
DA:560,1
DA:561,1
DA:564,1
DA:565,1
DA:566,1
DA:567,1
DA:568,1
DA:569,1
DA:570,1
DA:571,1
DA:572,1
DA:573,1
DA:576,1
DA:577,1
DA:578,1
DA:579,1
DA:582,1
DA:583,1
DA:584,1
DA:585,1
DA:586,1
DA:587,1
DA:588,1
DA:591,1
DA:592,1
DA:593,1
DA:594,1
DA:595,1
DA:596,1
DA:597,1
DA:600,1
DA:601,1
DA:602,1
DA:603,1
DA:604,1
DA:605,1
DA:607,1
DA:608,1
DA:609,1
DA:610,1
DA:612,1
DA:613,1
DA:614,1
DA:616,1
DA:617,1
DA:618,1
DA:619,1
DA:620,1
DA:623,1
DA:624,1
DA:625,1
DA:626,1
DA:629,1
DA:630,1
DA:631,1
DA:632,1
DA:633,1
DA:634,1
DA:635,1
DA:636,1
DA:637,1
DA:638,1
DA:639,1
DA:642,1
DA:643,1
DA:644,1
DA:645,1
DA:646,1
DA:647,1
DA:648,1
DA:649,1
DA:650,1
DA:651,1
DA:654,1
DA:655,1
DA:656,1
DA:657,1
DA:658,1
DA:661,1
DA:662,1
DA:663,1
DA:664,1
DA:665,1
DA:666,1
DA:667,1
DA:668,1
DA:669,1
DA:670,1
DA:671,1
DA:674,1
DA:675,1
DA:676,1
DA:677,1
DA:678,1
DA:679,1
DA:680,1
DA:681,1
DA:682,1
DA:683,1
DA:686,1
DA:687,1
DA:688,1
DA:689,1
DA:690,1
DA:691,1
DA:692,1
DA:695,1
DA:696,1
DA:697,1
DA:698,1
DA:699,1
DA:700,1
DA:701,1
DA:702,1
DA:703,1
DA:704,1
DA:705,1
DA:707,1
DA:708,1
DA:709,1
DA:712,1
DA:713,1
DA:714,1
DA:715,1
DA:716,1
DA:717,1
DA:718,1
DA:721,1
DA:722,1
DA:723,1
DA:724,1
DA:725,1
DA:726,1
DA:727,1
DA:728,1
DA:731,1
DA:732,1
DA:733,1
DA:734,1
DA:736,1
DA:737,1
DA:738,1
DA:739,1
DA:740,1
DA:741,1
DA:744,1
DA:745,1
DA:746,1
DA:747,1
DA:748,1
DA:751,1
DA:752,1
DA:753,1
DA:754,1
DA:755,1
DA:756,1
DA:757,1
DA:758,1
DA:759,1
DA:760,1
DA:761,1
DA:762,1
DA:763,1
DA:764,1
DA:765,1
DA:768,1
DA:769,1
DA:770,1
DA:771,1
DA:772,1
DA:773,1
DA:774,1
DA:775,1
DA:776,1
DA:777,1
DA:778,1
DA:779,1
DA:780,1
DA:783,1
DA:784,1
DA:785,1
DA:786,1
DA:787,1
DA:788,1
DA:789,1
DA:792,1
DA:793,1
DA:794,1
DA:795,1
DA:796,1
DA:799,1
DA:800,1
DA:801,1
DA:802,1
DA:805,1
DA:806,1
DA:807,1
DA:808,1
DA:809,1
DA:810,1
DA:811,1
DA:812,1
DA:815,1
DA:816,1
DA:817,1
DA:818,1
DA:819,1
DA:820,1
DA:821,1
DA:822,1
DA:823,1
DA:824,1
DA:825,1
BRF:0
BRH:0
LF:560
LH:551
end_of_record
SF:/Users/ivan/projects/github/esp/orion-rust/crates/orion-core/src/flags_application.rs
FN:87,_RINvMNtCs20Ygd6RoaGo_10orion_core17flags_applicationNtB3_16FlagsApplication17handle_mode_inputNtNtB5_5store20MemoryHighScoreStoreNtNtB5_3rng11ScriptedRngEB5_
FN:153,_RINvMNtCs20Ygd6RoaGo_10orion_core17flags_applicationNtB3_16FlagsApplication19handle_paused_inputNtNtB5_5store20MemoryHighScoreStoreNtNtB5_3rng11ScriptedRngEB5_
FN:187,_RINvMNtCs20Ygd6RoaGo_10orion_core17flags_applicationNtB3_16FlagsApplication19handle_result_inputNtNtB5_5store20MemoryHighScoreStoreNtNtB5_3rng11ScriptedRngEB5_
FN:121,_RINvMNtCs20Ygd6RoaGo_10orion_core17flags_applicationNtB3_16FlagsApplication21handle_question_inputNtNtB5_6render16RecordingDisplayEB5_
FN:33,_RINvMNtCs20Ygd6RoaGo_10orion_core17flags_applicationNtB3_16FlagsApplication5enterNtNtB5_5store20MemoryHighScoreStoreEB5_
FN:38,_RINvMNtCs20Ygd6RoaGo_10orion_core17flags_applicationNtB3_16FlagsApplication6updateNtNtB5_6render16RecordingDisplayNtNtB5_5store20MemoryHighScoreStoreNtNtB5_3rng11ScriptedRngEB5_
FN:220,_RNvMNtCs20Ygd6RoaGo_10orion_core17flags_applicationNtB2_16FlagsApplication21accept_menu_direction
FN:21,_RNvMNtCs20Ygd6RoaGo_10orion_core17flags_applicationNtB2_16FlagsApplication3new
FN:83,_RNvMNtCs20Ygd6RoaGo_10orion_core17flags_applicationNtB2_16FlagsApplication4game
FN:244,_RNvNtNtCs20Ygd6RoaGo_10orion_core17flags_application5testss_27switch_starts_selected_mode
FN:382,_RNvNtNtCs20Ygd6RoaGo_10orion_core17flags_application5testss_30pause_exit_returns_to_launcher
FN:314,_RNvNtNtCs20Ygd6RoaGo_10orion_core17flags_application5testss_33choosing_exit_returns_to_launcher
FN:343,_RNvNtNtCs20Ygd6RoaGo_10orion_core17flags_application5testss_39long_press_during_question_enters_pause
FN:270,_RNvNtNtCs20Ygd6RoaGo_10orion_core17flags_application5testss_58answer_confirm_renders_feedback_without_full_redraw_action
FN:79,_RINvMNtCs20Ygd6RoaGo_10orion_core17flags_applicationNtB3_16FlagsApplication11render_fullpEB5_
FN:29,_RNvMNtCs20Ygd6RoaGo_10orion_core17flags_applicationNtB2_16FlagsApplication5title
FN:230,_RNvXs_NtCs20Ygd6RoaGo_10orion_core17flags_applicationNtB4_16FlagsApplicationNtNtCs6sq8b9ugfBC_4core7default7Default7default
FNDA:5,_RINvMNtCs20Ygd6RoaGo_10orion_core17flags_applicationNtB3_16FlagsApplication17handle_mode_inputNtNtB5_5store20MemoryHighScoreStoreNtNtB5_3rng11ScriptedRngEB5_
FNDA:1,_RINvMNtCs20Ygd6RoaGo_10orion_core17flags_applicationNtB3_16FlagsApplication19handle_paused_inputNtNtB5_5store20MemoryHighScoreStoreNtNtB5_3rng11ScriptedRngEB5_
FNDA:0,_RINvMNtCs20Ygd6RoaGo_10orion_core17flags_applicationNtB3_16FlagsApplication19handle_result_inputNtNtB5_5store20MemoryHighScoreStoreNtNtB5_3rng11ScriptedRngEB5_
FNDA:2,_RINvMNtCs20Ygd6RoaGo_10orion_core17flags_applicationNtB3_16FlagsApplication21handle_question_inputNtNtB5_6render16RecordingDisplayEB5_
FNDA:5,_RINvMNtCs20Ygd6RoaGo_10orion_core17flags_applicationNtB3_16FlagsApplication5enterNtNtB5_5store20MemoryHighScoreStoreEB5_
FNDA:8,_RINvMNtCs20Ygd6RoaGo_10orion_core17flags_applicationNtB3_16FlagsApplication6updateNtNtB5_6render16RecordingDisplayNtNtB5_5store20MemoryHighScoreStoreNtNtB5_3rng11ScriptedRngEB5_
FNDA:0,_RNvMNtCs20Ygd6RoaGo_10orion_core17flags_applicationNtB2_16FlagsApplication21accept_menu_direction
FNDA:5,_RNvMNtCs20Ygd6RoaGo_10orion_core17flags_applicationNtB2_16FlagsApplication3new
FNDA:4,_RNvMNtCs20Ygd6RoaGo_10orion_core17flags_applicationNtB2_16FlagsApplication4game
FNDA:1,_RNvNtNtCs20Ygd6RoaGo_10orion_core17flags_application5testss_27switch_starts_selected_mode
FNDA:1,_RNvNtNtCs20Ygd6RoaGo_10orion_core17flags_application5testss_30pause_exit_returns_to_launcher
FNDA:1,_RNvNtNtCs20Ygd6RoaGo_10orion_core17flags_application5testss_33choosing_exit_returns_to_launcher
FNDA:1,_RNvNtNtCs20Ygd6RoaGo_10orion_core17flags_application5testss_39long_press_during_question_enters_pause
FNDA:1,_RNvNtNtCs20Ygd6RoaGo_10orion_core17flags_application5testss_58answer_confirm_renders_feedback_without_full_redraw_action
FNDA:0,_RINvMNtCs20Ygd6RoaGo_10orion_core17flags_applicationNtB3_16FlagsApplication11render_fullpEB5_
FNDA:0,_RNvMNtCs20Ygd6RoaGo_10orion_core17flags_applicationNtB2_16FlagsApplication5title
FNDA:0,_RNvXs_NtCs20Ygd6RoaGo_10orion_core17flags_applicationNtB4_16FlagsApplicationNtNtCs6sq8b9ugfBC_4core7default7Default7default
FNF:17
FNH:12
DA:21,5
DA:22,5
DA:23,5
DA:24,5
DA:25,5
DA:26,5
DA:27,5
DA:29,0
DA:30,0
DA:31,0
DA:33,5
DA:34,5
DA:35,5
DA:36,5
DA:38,8
DA:39,8
DA:40,8
DA:41,8
DA:42,8
DA:43,8
DA:44,8
DA:45,8
DA:46,8
DA:47,0
DA:49,0
DA:50,0
DA:51,8
DA:53,8
DA:54,8
DA:56,5
DA:59,2
DA:61,0
DA:63,1
DA:66,0
DA:70,8
DA:71,2
DA:72,6
DA:73,5
DA:75,1
DA:77,8
DA:79,0
DA:80,0
DA:81,0
DA:83,4
DA:84,4
DA:85,4
DA:87,5
DA:88,5
DA:89,5
DA:90,5
DA:91,5
DA:92,5
DA:93,5
DA:94,5
DA:95,5
DA:96,5
DA:97,0
DA:98,0
DA:100,0
DA:102,5
DA:103,5
DA:104,0
DA:105,0
DA:106,0
DA:107,0
DA:108,0
DA:109,5
DA:110,5
DA:111,5
DA:112,1
DA:113,1
DA:114,4
DA:115,4
DA:116,4
DA:117,0
DA:118,4
DA:119,5
DA:121,2
DA:122,2
DA:123,2
DA:124,2
DA:125,2
DA:126,2
DA:127,2
DA:128,1
DA:129,1
DA:130,1
DA:132,1
DA:133,1
DA:134,1
DA:136,0
DA:137,1
DA:138,1
DA:139,0
DA:140,0
DA:141,0
DA:142,1
DA:143,1
DA:144,1
DA:145,1
DA:146,1
DA:147,1
DA:148,0
DA:149,0
DA:150,1
DA:151,2
DA:153,1
DA:154,1
DA:155,1
DA:156,1
DA:157,1
DA:158,1
DA:159,1
DA:160,1
DA:161,1
DA:162,0
DA:163,0
DA:164,1
DA:165,1
DA:166,0
DA:167,0
DA:168,0
DA:172,0
DA:173,0
DA:174,1
DA:175,1
DA:176,1
DA:177,1
DA:178,1
DA:179,1
DA:180,0
DA:181,0
DA:182,0
DA:183,0
DA:184,0
DA:185,1
DA:187,0
DA:188,0
DA:189,0
DA:190,0
DA:191,0
DA:192,0
DA:193,0
DA:194,0
DA:195,0
DA:196,0
DA:197,0
DA:198,0
DA:199,0
DA:200,0
DA:201,0
DA:202,0
DA:206,0
DA:207,0
DA:208,0
DA:209,0
DA:210,0
DA:211,0
DA:212,0
DA:213,0
DA:214,0
DA:215,0
DA:216,0
DA:217,0
DA:218,0
DA:220,0
DA:221,0
DA:222,0
DA:223,0
DA:224,0
DA:225,0
DA:226,0
DA:230,0
DA:231,0
DA:232,0
DA:244,1
DA:245,1
DA:246,1
DA:247,1
DA:248,1
DA:249,1
DA:251,1
DA:252,1
DA:253,1
DA:254,1
DA:255,1
DA:256,1
DA:257,1
DA:258,1
DA:259,1
DA:260,1
DA:261,1
DA:265,1
DA:266,1
DA:267,1
DA:270,1
DA:271,1
DA:272,1
DA:273,1
DA:274,1
DA:275,1
DA:276,1
DA:277,1
DA:278,1
DA:279,1
DA:280,1
DA:281,1
DA:282,1
DA:283,1
DA:284,1
DA:285,1
DA:286,1
DA:287,1
DA:288,1
DA:289,1
DA:291,1
DA:292,1
DA:293,1
DA:294,1
DA:295,1
DA:296,1
DA:297,1
DA:298,1
DA:299,1
DA:300,1
DA:301,1
DA:305,1
DA:306,1
DA:307,1
DA:308,1
DA:311,1
DA:314,1
DA:315,1
DA:316,1
DA:317,1
DA:318,1
DA:319,1
DA:321,1
DA:322,1
DA:323,1
DA:325,1
DA:326,1
DA:327,1
DA:328,1
DA:329,1
DA:330,1
DA:331,1
DA:332,1
DA:333,1
DA:334,1
DA:335,1
DA:339,1
DA:340,1
DA:343,1
DA:344,1
DA:345,1
DA:346,1
DA:347,1
DA:348,1
DA:349,1
DA:350,1
DA:351,1
DA:352,1
DA:353,1
DA:354,1
DA:355,1
DA:356,1
DA:357,1
DA:358,1
DA:359,1
DA:360,1
DA:361,1
DA:362,1
DA:364,1
DA:365,1
DA:366,1
DA:367,1
DA:368,1
DA:369,1
DA:370,1
DA:371,1
DA:372,1
DA:373,1
DA:374,1
DA:377,1
DA:378,1
DA:379,1
DA:382,1
DA:383,1
DA:384,1
DA:385,1
DA:386,1
DA:387,1
DA:388,1
DA:389,1
DA:390,1
DA:391,1
DA:392,1
DA:393,1
DA:394,1
DA:395,1
DA:396,1
DA:397,1
DA:398,1
DA:399,1
DA:400,1
DA:402,1
DA:403,1
DA:405,1
DA:406,1
DA:407,1
DA:408,1
DA:409,1
DA:410,1
DA:411,1
DA:412,1
DA:413,1
DA:414,1
DA:415,1
DA:418,1
DA:419,1
BRF:0
BRH:0
LF:321
LH:244
end_of_record
SF:/Users/ivan/projects/github/esp/orion-rust/crates/orion-core/src/flags_renderer.rs
FN:409,_RNCNvNtNtCs20Ygd6RoaGo_10orion_core14flags_renderer5testss_41question_screen_draws_flag_bitmap_command0B7_
FN:63,_RINvNtCs20Ygd6RoaGo_10orion_core14flags_renderer15render_feedbackNtNtB4_6render16RecordingDisplayEB4_
FN:314,_RINvNtCs20Ygd6RoaGo_10orion_core14flags_renderer16draw_answer_tileNtNtB4_6render16RecordingDisplayEB4_
FN:296,_RINvNtCs20Ygd6RoaGo_10orion_core14flags_renderer16draw_flag_bitmapNtNtB4_6render16RecordingDisplayEB4_
FN:84,_RINvNtCs20Ygd6RoaGo_10orion_core14flags_renderer16draw_mode_screenNtNtB4_6render16RecordingDisplayEB4_
FN:300,_RINvNtCs20Ygd6RoaGo_10orion_core14flags_renderer17draw_answer_tilesNtNtB4_6render16RecordingDisplayEB4_
FN:268,_RINvNtCs20Ygd6RoaGo_10orion_core14flags_renderer17draw_pause_screenNtNtB4_6render16RecordingDisplayEB4_
FN:224,_RINvNtCs20Ygd6RoaGo_10orion_core14flags_renderer18draw_result_screenNtNtB4_6render16RecordingDisplayEB4_
FN:169,_RINvNtCs20Ygd6RoaGo_10orion_core14flags_renderer20draw_feedback_screenNtNtB4_6render16RecordingDisplayEB4_
FN:130,_RINvNtCs20Ygd6RoaGo_10orion_core14flags_renderer20draw_question_screenNtNtB4_6render16RecordingDisplayEB4_
FN:174,_RINvNtCs20Ygd6RoaGo_10orion_core14flags_renderer21draw_feedback_overlayNtNtB4_6render16RecordingDisplayEB4_
FN:34,_RINvNtCs20Ygd6RoaGo_10orion_core14flags_renderer23render_answer_selectionNtNtB4_6render16RecordingDisplayEB4_
FN:22,_RINvNtCs20Ygd6RoaGo_10orion_core14flags_renderer6renderNtNtB4_6render16RecordingDisplayEB4_
FN:357,_RNvNtNtCs20Ygd6RoaGo_10orion_core14flags_renderer5tests18make_game_in_state
FN:425,_RNvNtNtCs20Ygd6RoaGo_10orion_core14flags_renderer5testss_20render_paused_screen
FN:552,_RNvNtNtCs20Ygd6RoaGo_10orion_core14flags_renderer5testss_21answer_tile_positions
FN:453,_RNvNtNtCs20Ygd6RoaGo_10orion_core14flags_renderer5testss_21render_results_screen
FN:464,_RNvNtNtCs20Ygd6RoaGo_10orion_core14flags_renderer5testss_23render_game_over_screen
FN:413,_RNvNtNtCs20Ygd6RoaGo_10orion_core14flags_renderer5testss_27render_choosing_mode_screen
FN:522,_RNvNtNtCs20Ygd6RoaGo_10orion_core14flags_renderer5testss_34render_question_with_practice_mode
FN:537,_RNvNtNtCs20Ygd6RoaGo_10orion_core14flags_renderer5testss_37render_question_with_death_match_mode
FN:491,_RNvNtNtCs20Ygd6RoaGo_10orion_core14flags_renderer5testss_39render_answer_selection_skips_when_same
FN:399,_RNvNtNtCs20Ygd6RoaGo_10orion_core14flags_renderer5testss_41question_screen_draws_flag_bitmap_command
FN:475,_RNvNtNtCs20Ygd6RoaGo_10orion_core14flags_renderer5testss_44render_answer_selection_redraws_changed_tile
FN:436,_RNvNtNtCs20Ygd6RoaGo_10orion_core14flags_renderer5testss_46render_feedback_screen_shows_correct_and_wrong
FN:506,_RNvNtNtCs20Ygd6RoaGo_10orion_core14flags_renderer5testss_50render_feedback_overlay_draws_correct_wrong_banner
FN:68,_RNvNtCs20Ygd6RoaGo_10orion_core14flags_renderer13answer_tile_x
FN:76,_RNvNtCs20Ygd6RoaGo_10orion_core14flags_renderer13answer_tile_y
FNDA:162,_RNCNvNtNtCs20Ygd6RoaGo_10orion_core14flags_renderer5testss_41question_screen_draws_flag_bitmap_command0B7_
FNDA:2,_RINvNtCs20Ygd6RoaGo_10orion_core14flags_renderer15render_feedbackNtNtB4_6render16RecordingDisplayEB4_
FNDA:23,_RINvNtCs20Ygd6RoaGo_10orion_core14flags_renderer16draw_answer_tileNtNtB4_6render16RecordingDisplayEB4_
FNDA:4,_RINvNtCs20Ygd6RoaGo_10orion_core14flags_renderer16draw_flag_bitmapNtNtB4_6render16RecordingDisplayEB4_
FNDA:1,_RINvNtCs20Ygd6RoaGo_10orion_core14flags_renderer16draw_mode_screenNtNtB4_6render16RecordingDisplayEB4_
FNDA:4,_RINvNtCs20Ygd6RoaGo_10orion_core14flags_renderer17draw_answer_tilesNtNtB4_6render16RecordingDisplayEB4_
FNDA:1,_RINvNtCs20Ygd6RoaGo_10orion_core14flags_renderer17draw_pause_screenNtNtB4_6render16RecordingDisplayEB4_
FNDA:2,_RINvNtCs20Ygd6RoaGo_10orion_core14flags_renderer18draw_result_screenNtNtB4_6render16RecordingDisplayEB4_
FNDA:1,_RINvNtCs20Ygd6RoaGo_10orion_core14flags_renderer20draw_feedback_screenNtNtB4_6render16RecordingDisplayEB4_
FNDA:4,_RINvNtCs20Ygd6RoaGo_10orion_core14flags_renderer20draw_question_screenNtNtB4_6render16RecordingDisplayEB4_
FNDA:3,_RINvNtCs20Ygd6RoaGo_10orion_core14flags_renderer21draw_feedback_overlayNtNtB4_6render16RecordingDisplayEB4_
FNDA:2,_RINvNtCs20Ygd6RoaGo_10orion_core14flags_renderer23render_answer_selectionNtNtB4_6render16RecordingDisplayEB4_
FNDA:8,_RINvNtCs20Ygd6RoaGo_10orion_core14flags_renderer6renderNtNtB4_6render16RecordingDisplayEB4_
FNDA:3,_RNvNtNtCs20Ygd6RoaGo_10orion_core14flags_renderer5tests18make_game_in_state
FNDA:1,_RNvNtNtCs20Ygd6RoaGo_10orion_core14flags_renderer5testss_20render_paused_screen
FNDA:1,_RNvNtNtCs20Ygd6RoaGo_10orion_core14flags_renderer5testss_21answer_tile_positions
FNDA:1,_RNvNtNtCs20Ygd6RoaGo_10orion_core14flags_renderer5testss_21render_results_screen
FNDA:1,_RNvNtNtCs20Ygd6RoaGo_10orion_core14flags_renderer5testss_23render_game_over_screen
FNDA:1,_RNvNtNtCs20Ygd6RoaGo_10orion_core14flags_renderer5testss_27render_choosing_mode_screen
FNDA:1,_RNvNtNtCs20Ygd6RoaGo_10orion_core14flags_renderer5testss_34render_question_with_practice_mode
FNDA:1,_RNvNtNtCs20Ygd6RoaGo_10orion_core14flags_renderer5testss_37render_question_with_death_match_mode
FNDA:1,_RNvNtNtCs20Ygd6RoaGo_10orion_core14flags_renderer5testss_39render_answer_selection_skips_when_same
FNDA:1,_RNvNtNtCs20Ygd6RoaGo_10orion_core14flags_renderer5testss_41question_screen_draws_flag_bitmap_command
FNDA:1,_RNvNtNtCs20Ygd6RoaGo_10orion_core14flags_renderer5testss_44render_answer_selection_redraws_changed_tile
FNDA:1,_RNvNtNtCs20Ygd6RoaGo_10orion_core14flags_renderer5testss_46render_feedback_screen_shows_correct_and_wrong
FNDA:1,_RNvNtNtCs20Ygd6RoaGo_10orion_core14flags_renderer5testss_50render_feedback_overlay_draws_correct_wrong_banner
FNDA:27,_RNvNtCs20Ygd6RoaGo_10orion_core14flags_renderer13answer_tile_x
FNDA:27,_RNvNtCs20Ygd6RoaGo_10orion_core14flags_renderer13answer_tile_y
FNF:28
FNH:28
DA:22,8
DA:23,8
DA:24,1
DA:25,3
DA:26,1
DA:27,1
DA:28,1
DA:29,1
DA:31,8
DA:32,8
DA:34,2
DA:35,2
DA:36,2
DA:37,2
DA:38,2
DA:39,2
DA:40,2
DA:41,1
DA:42,1
DA:43,1
DA:44,1
DA:45,1
DA:46,1
DA:47,1
DA:48,1
DA:49,1
DA:50,1
DA:51,2
DA:52,2
DA:53,2
DA:54,2
DA:55,2
DA:56,2
DA:60,2
DA:61,2
DA:63,2
DA:64,2
DA:65,2
DA:66,2
DA:68,27
DA:69,27
DA:70,16
DA:72,11
DA:74,27
DA:76,27
DA:77,27
DA:78,16
DA:80,11
DA:82,27
DA:84,1
DA:85,1
DA:86,1
DA:87,1
DA:88,1
DA:89,1
DA:93,1
DA:94,1
DA:95,1
DA:97,1
DA:98,1
DA:102,1
DA:103,1
DA:104,1
DA:106,1
DA:107,1
DA:111,1
DA:112,1
DA:113,1
DA:115,1
DA:116,1
DA:120,1
DA:121,1
DA:122,1
DA:124,1
DA:125,1
DA:126,1
DA:127,1
DA:128,1
DA:130,4
DA:131,4
DA:132,4
DA:133,4
DA:134,0
DA:135,0
DA:136,0
DA:137,0
DA:138,0
DA:139,0
DA:140,0
DA:141,0
DA:142,0
DA:143,1
DA:144,1
DA:145,1
DA:146,3
DA:147,3
DA:148,3
DA:150,4
DA:151,4
DA:152,4
DA:155,4
DA:159,4
DA:161,4
DA:162,4
DA:163,4
DA:164,4
DA:165,4
DA:166,4
DA:167,4
DA:169,1
DA:170,1
DA:171,1
DA:172,1
DA:174,3
DA:175,3
DA:176,3
DA:177,3
DA:178,3
DA:179,3
DA:180,3
DA:181,3
DA:182,3
DA:186,3
DA:187,1
DA:188,1
DA:189,1
DA:190,1
DA:191,1
DA:192,1
DA:193,1
DA:194,1
DA:195,1
DA:196,2
DA:197,3
DA:198,3
DA:203,3
DA:204,2
DA:206,1
DA:209,3
DA:210,3
DA:214,3
DA:215,2
DA:217,1
DA:222,3
DA:224,2
DA:225,2
DA:226,2
DA:227,2
DA:231,2
DA:235,2
DA:236,2
DA:237,1
DA:238,1
DA:239,1
DA:240,1
DA:241,2
DA:242,2
DA:243,1
DA:244,1
DA:245,1
DA:246,1
DA:247,2
DA:248,2
DA:252,2
DA:253,2
DA:254,2
DA:256,2
DA:257,2
DA:261,2
DA:262,2
DA:263,2
DA:265,2
DA:266,2
DA:268,1
DA:269,1
DA:270,1
DA:271,1
DA:272,1
DA:273,1
DA:274,1
DA:275,1
DA:277,1
DA:279,1
DA:280,1
DA:281,1
DA:283,1
DA:284,1
DA:286,1
DA:288,1
DA:289,1
DA:290,1
DA:292,1
DA:293,1
DA:294,1
DA:296,4
DA:297,4
DA:298,4
DA:300,4
DA:301,16
DA:302,16
DA:303,16
DA:304,16
DA:305,16
DA:306,16
DA:307,16
DA:308,16
DA:309,16
DA:310,16
DA:311,16
DA:312,4
DA:314,23
DA:315,23
DA:316,23
DA:317,23
DA:318,23
DA:319,23
DA:320,23
DA:321,23
DA:322,23
DA:323,23
DA:324,9
DA:326,14
DA:328,23
DA:329,8
DA:330,4
DA:331,4
DA:332,1
DA:333,3
DA:334,15
DA:335,23
DA:336,23
DA:337,5
DA:338,18
DA:339,23
DA:340,23
DA:341,23
DA:342,23
DA:343,23
DA:349,23
DA:357,3
DA:358,3
DA:359,3
DA:360,3
DA:361,3
DA:362,0
DA:363,0
DA:364,0
DA:365,0
DA:366,0
DA:367,0
DA:368,1
DA:369,1
DA:370,1
DA:371,1
DA:372,0
DA:373,0
DA:374,0
DA:375,0
DA:376,0
DA:377,1
DA:378,1
DA:379,1
DA:380,1
DA:381,1
DA:382,1
DA:383,1
DA:384,1
DA:386,1
DA:387,1
DA:388,1
DA:389,20
DA:390,20
DA:391,20
DA:392,20
DA:395,3
DA:396,3
DA:399,1
DA:400,1
DA:401,1
DA:402,1
DA:403,1
DA:404,1
DA:405,1
DA:406,1
DA:407,1
DA:408,1
DA:409,162
DA:410,1
DA:413,1
DA:414,1
DA:415,1
DA:416,1
DA:417,1
DA:418,1
DA:421,1
DA:422,1
DA:425,1
DA:426,1
DA:427,1
DA:428,1
DA:429,1
DA:430,1
DA:433,1
DA:436,1
DA:437,1
DA:438,1
DA:439,1
DA:440,1
DA:441,1
DA:442,1
DA:443,1
DA:444,1
DA:445,1
DA:446,1
DA:447,1
DA:450,1
DA:453,1
DA:454,1
DA:455,1
DA:456,1
DA:457,1
DA:458,1
DA:461,1
DA:464,1
DA:465,1
DA:466,1
DA:467,1
DA:468,1
DA:469,1
DA:472,1
DA:475,1
DA:476,1
DA:477,1
DA:478,1
DA:479,1
DA:480,1
DA:481,1
DA:482,1
DA:483,1
DA:484,1
DA:485,1
DA:488,1
DA:491,1
DA:492,1
DA:493,1
DA:494,1
DA:495,1
DA:496,1
DA:497,1
DA:498,1
DA:499,1
DA:500,1
DA:503,1
DA:506,1
DA:507,1
DA:508,1
DA:509,1
DA:510,1
DA:511,1
DA:512,1
DA:513,1
DA:514,1
DA:515,1
DA:516,1
DA:519,1
DA:522,1
DA:523,1
DA:524,1
DA:525,1
DA:526,1
DA:527,1
DA:528,1
DA:529,1
DA:530,1
DA:531,1
DA:534,1
DA:537,1
DA:538,1
DA:539,1
DA:540,1
DA:541,1
DA:542,1
DA:543,1
DA:544,1
DA:545,1
DA:546,1
DA:549,1
DA:552,1
DA:553,1
DA:554,1
DA:555,1
DA:556,1
DA:557,1
DA:558,1
DA:559,1
DA:560,1
DA:561,1
BRF:0
BRH:0
LF:398
LH:378
end_of_record
SF:/Users/ivan/projects/github/esp/orion-rust/crates/orion-core/src/font.rs
FN:326,_RNCNvNtNtCs20Ygd6RoaGo_10orion_core4font5testss_25draws_scaled_glyph_pixels0B7_
FN:234,_RINvNtCs20Ygd6RoaGo_10orion_core4font12draw_char_aaNtNtB4_6render16RecordingDisplayEB4_
FN:88,_RINvNtCs20Ygd6RoaGo_10orion_core4font12draw_text_aaNtNtB4_6render16RecordingDisplayEB4_
FN:72,_RINvNtCs20Ygd6RoaGo_10orion_core4font17draw_text_limitedNtNtB4_6render16RecordingDisplayEB4_
FN:126,_RINvNtCs20Ygd6RoaGo_10orion_core4font17draw_wrapped_textNtNtB4_6render16RecordingDisplayEB4_
FN:176,_RINvNtCs20Ygd6RoaGo_10orion_core4font18draw_centered_textINtNtB4_15tetris_renderer16RotatedClockwiseNtNtB4_6render16RecordingDisplayEEB4_
FN:176,_RINvNtCs20Ygd6RoaGo_10orion_core4font18draw_centered_textNtNtB4_6render16RecordingDisplayEB4_
FN:105,_RINvNtCs20Ygd6RoaGo_10orion_core4font21draw_centered_text_aaNtNtB4_6render16RecordingDisplayEB4_
FN:38,_RINvNtCs20Ygd6RoaGo_10orion_core4font9draw_charINtNtB4_15tetris_renderer16RotatedClockwiseNtNtB4_6render16RecordingDisplayEEB4_
FN:38,_RINvNtCs20Ygd6RoaGo_10orion_core4font9draw_charNtNtB4_6render16RecordingDisplayEB4_
FN:57,_RINvNtCs20Ygd6RoaGo_10orion_core4font9draw_textINtNtB4_15tetris_renderer16RotatedClockwiseNtNtB4_6render16RecordingDisplayEEB4_
FN:57,_RINvNtCs20Ygd6RoaGo_10orion_core4font9draw_textNtNtB4_6render16RecordingDisplayEB4_
FN:11,_RNvMNtCs20Ygd6RoaGo_10orion_core4fontINtB2_10TextBufferKj10_E3newB4_
FN:18,_RNvMNtCs20Ygd6RoaGo_10orion_core4fontINtB2_10TextBufferKj10_E6as_strB4_
FN:11,_RNvMNtCs20Ygd6RoaGo_10orion_core4fontINtB2_10TextBufferKj14_E3newB4_
FN:18,_RNvMNtCs20Ygd6RoaGo_10orion_core4fontINtB2_10TextBufferKj14_E6as_strB4_
FN:11,_RNvMNtCs20Ygd6RoaGo_10orion_core4fontINtB2_10TextBufferKj18_E3newB4_
FN:18,_RNvMNtCs20Ygd6RoaGo_10orion_core4fontINtB2_10TextBufferKj18_E6as_strB4_
FN:11,_RNvMNtCs20Ygd6RoaGo_10orion_core4fontINtB2_10TextBufferKj28_E3newB4_
FN:18,_RNvMNtCs20Ygd6RoaGo_10orion_core4fontINtB2_10TextBufferKj28_E6as_strB4_
FN:11,_RNvMNtCs20Ygd6RoaGo_10orion_core4fontINtB2_10TextBufferKj30_E3newB4_
FN:18,_RNvMNtCs20Ygd6RoaGo_10orion_core4fontINtB2_10TextBufferKj30_E6as_strB4_
FN:11,_RNvMNtCs20Ygd6RoaGo_10orion_core4fontINtB2_10TextBufferKj8_E3newB4_
FN:18,_RNvMNtCs20Ygd6RoaGo_10orion_core4fontINtB2_10TextBufferKj8_E6as_strB4_
FN:11,_RNvMNtCs20Ygd6RoaGo_10orion_core4fontINtB2_10TextBufferKjc_E3newB4_
FN:18,_RNvMNtCs20Ygd6RoaGo_10orion_core4fontINtB2_10TextBufferKjc_E6as_strB4_
FN:24,_RNvXs_NtCs20Ygd6RoaGo_10orion_core4fontINtB4_10TextBufferKj10_ENtNtCs6sq8b9ugfBC_4core3fmt5Write9write_strB6_
FN:24,_RNvXs_NtCs20Ygd6RoaGo_10orion_core4fontINtB4_10TextBufferKj14_ENtNtCs6sq8b9ugfBC_4core3fmt5Write9write_strB6_
FN:24,_RNvXs_NtCs20Ygd6RoaGo_10orion_core4fontINtB4_10TextBufferKj18_ENtNtCs6sq8b9ugfBC_4core3fmt5Write9write_strB6_
FN:24,_RNvXs_NtCs20Ygd6RoaGo_10orion_core4fontINtB4_10TextBufferKj28_ENtNtCs6sq8b9ugfBC_4core3fmt5Write9write_strB6_
FN:24,_RNvXs_NtCs20Ygd6RoaGo_10orion_core4fontINtB4_10TextBufferKj30_ENtNtCs6sq8b9ugfBC_4core3fmt5Write9write_strB6_
FN:24,_RNvXs_NtCs20Ygd6RoaGo_10orion_core4fontINtB4_10TextBufferKj8_ENtNtCs6sq8b9ugfBC_4core3fmt5Write9write_strB6_
FN:24,_RNvXs_NtCs20Ygd6RoaGo_10orion_core4fontINtB4_10TextBufferKjc_ENtNtCs6sq8b9ugfBC_4core3fmt5Write9write_strB6_
FN:198,_RNvNtCs20Ygd6RoaGo_10orion_core4font12font_bit_val
FN:271,_RNvNtCs20Ygd6RoaGo_10orion_core4font12font_columns
FN:209,_RNvNtCs20Ygd6RoaGo_10orion_core4font19compute_aa_coverage
FN:322,_RNvNtNtCs20Ygd6RoaGo_10orion_core4font5testss_25draws_scaled_glyph_pixels
FNDA:1,_RNCNvNtNtCs20Ygd6RoaGo_10orion_core4font5testss_25draws_scaled_glyph_pixels0B7_
FNDA:23,_RINvNtCs20Ygd6RoaGo_10orion_core4font12draw_char_aaNtNtB4_6render16RecordingDisplayEB4_
FNDA:23,_RINvNtCs20Ygd6RoaGo_10orion_core4font12draw_text_aaNtNtB4_6render16RecordingDisplayEB4_
FNDA:30,_RINvNtCs20Ygd6RoaGo_10orion_core4font17draw_text_limitedNtNtB4_6render16RecordingDisplayEB4_
FNDA:23,_RINvNtCs20Ygd6RoaGo_10orion_core4font17draw_wrapped_textNtNtB4_6render16RecordingDisplayEB4_
FNDA:5,_RINvNtCs20Ygd6RoaGo_10orion_core4font18draw_centered_textINtNtB4_15tetris_renderer16RotatedClockwiseNtNtB4_6render16RecordingDisplayEEB4_
FNDA:45,_RINvNtCs20Ygd6RoaGo_10orion_core4font18draw_centered_textNtNtB4_6render16RecordingDisplayEB4_
FNDA:23,_RINvNtCs20Ygd6RoaGo_10orion_core4font21draw_centered_text_aaNtNtB4_6render16RecordingDisplayEB4_
FNDA:120,_RINvNtCs20Ygd6RoaGo_10orion_core4font9draw_charINtNtB4_15tetris_renderer16RotatedClockwiseNtNtB4_6render16RecordingDisplayEEB4_
FNDA:1616,_RINvNtCs20Ygd6RoaGo_10orion_core4font9draw_charNtNtB4_6render16RecordingDisplayEB4_
FNDA:20,_RINvNtCs20Ygd6RoaGo_10orion_core4font9draw_textINtNtB4_15tetris_renderer16RotatedClockwiseNtNtB4_6render16RecordingDisplayEEB4_
FNDA:183,_RINvNtCs20Ygd6RoaGo_10orion_core4font9draw_textNtNtB4_6render16RecordingDisplayEB4_
FNDA:7,_RNvMNtCs20Ygd6RoaGo_10orion_core4fontINtB2_10TextBufferKj10_E3newB4_
FNDA:7,_RNvMNtCs20Ygd6RoaGo_10orion_core4fontINtB2_10TextBufferKj10_E6as_strB4_
FNDA:13,_RNvMNtCs20Ygd6RoaGo_10orion_core4fontINtB2_10TextBufferKj14_E3newB4_
FNDA:13,_RNvMNtCs20Ygd6RoaGo_10orion_core4fontINtB2_10TextBufferKj14_E6as_strB4_
FNDA:25,_RNvMNtCs20Ygd6RoaGo_10orion_core4fontINtB2_10TextBufferKj18_E3newB4_
FNDA:25,_RNvMNtCs20Ygd6RoaGo_10orion_core4fontINtB2_10TextBufferKj18_E6as_strB4_
FNDA:3,_RNvMNtCs20Ygd6RoaGo_10orion_core4fontINtB2_10TextBufferKj28_E3newB4_
FNDA:3,_RNvMNtCs20Ygd6RoaGo_10orion_core4fontINtB2_10TextBufferKj28_E6as_strB4_
FNDA:6,_RNvMNtCs20Ygd6RoaGo_10orion_core4fontINtB2_10TextBufferKj30_E3newB4_
FNDA:6,_RNvMNtCs20Ygd6RoaGo_10orion_core4fontINtB2_10TextBufferKj30_E6as_strB4_
FNDA:28,_RNvMNtCs20Ygd6RoaGo_10orion_core4fontINtB2_10TextBufferKj8_E3newB4_
FNDA:51,_RNvMNtCs20Ygd6RoaGo_10orion_core4fontINtB2_10TextBufferKj8_E6as_strB4_
FNDA:5,_RNvMNtCs20Ygd6RoaGo_10orion_core4fontINtB2_10TextBufferKjc_E3newB4_
FNDA:5,_RNvMNtCs20Ygd6RoaGo_10orion_core4fontINtB2_10TextBufferKjc_E6as_strB4_
FNDA:20,_RNvXs_NtCs20Ygd6RoaGo_10orion_core4fontINtB4_10TextBufferKj10_ENtNtCs6sq8b9ugfBC_4core3fmt5Write9write_strB6_
FNDA:26,_RNvXs_NtCs20Ygd6RoaGo_10orion_core4fontINtB4_10TextBufferKj14_ENtNtCs6sq8b9ugfBC_4core3fmt5Write9write_strB6_
FNDA:50,_RNvXs_NtCs20Ygd6RoaGo_10orion_core4fontINtB4_10TextBufferKj18_ENtNtCs6sq8b9ugfBC_4core3fmt5Write9write_strB6_
FNDA:6,_RNvXs_NtCs20Ygd6RoaGo_10orion_core4fontINtB4_10TextBufferKj28_ENtNtCs6sq8b9ugfBC_4core3fmt5Write9write_strB6_
FNDA:16,_RNvXs_NtCs20Ygd6RoaGo_10orion_core4fontINtB4_10TextBufferKj30_ENtNtCs6sq8b9ugfBC_4core3fmt5Write9write_strB6_
FNDA:34,_RNvXs_NtCs20Ygd6RoaGo_10orion_core4fontINtB4_10TextBufferKj8_ENtNtCs6sq8b9ugfBC_4core3fmt5Write9write_strB6_
FNDA:13,_RNvXs_NtCs20Ygd6RoaGo_10orion_core4fontINtB4_10TextBufferKjc_ENtNtCs6sq8b9ugfBC_4core3fmt5Write9write_strB6_
FNDA:51520,_RNvNtCs20Ygd6RoaGo_10orion_core4font12font_bit_val
FNDA:1759,_RNvNtCs20Ygd6RoaGo_10orion_core4font12font_columns
FNDA:12880,_RNvNtCs20Ygd6RoaGo_10orion_core4font19compute_aa_coverage
FNDA:1,_RNvNtNtCs20Ygd6RoaGo_10orion_core4font5testss_25draws_scaled_glyph_pixels
FNF:16
FNH:16
DA:11,87
DA:12,87
DA:13,87
DA:14,87
DA:15,87
DA:16,87
DA:18,110
DA:19,110
DA:20,110
DA:24,165
DA:25,165
DA:26,165
DA:27,165
DA:28,165
DA:29,165
DA:30,165
DA:31,165
DA:33,0
DA:35,165
DA:38,1736
DA:39,1736
DA:40,1736
DA:41,8680
DA:42,60760
DA:43,60760
DA:44,24963
DA:45,24963
DA:46,24963
DA:47,24963
DA:48,24963
DA:49,24963
DA:50,24963
DA:51,24963
DA:52,35797
DA:55,1736
DA:57,203
DA:58,203
DA:59,203
DA:60,203
DA:61,203
DA:62,203
DA:63,203
DA:64,203
DA:65,203
DA:66,1422
DA:67,1422
DA:68,1422
DA:69,1422
DA:70,203
DA:72,30
DA:73,30
DA:74,30
DA:75,30
DA:76,30
DA:77,30
DA:78,30
DA:79,30
DA:80,30
DA:81,30
DA:82,313
DA:83,313
DA:84,313
DA:85,313
DA:86,30
DA:88,23
DA:89,23
DA:90,23
DA:91,23
DA:92,23
DA:93,23
DA:94,23
DA:95,23
DA:96,23
DA:97,23
DA:98,23
DA:99,23
DA:100,23
DA:101,23
DA:102,23
DA:103,23
DA:105,23
DA:106,23
DA:107,23
DA:108,23
DA:109,23
DA:110,23
DA:111,23
DA:112,23
DA:113,23
DA:114,23
DA:115,23
DA:116,23
DA:117,23
DA:118,23
DA:119,23
DA:120,23
DA:121,23
DA:122,23
DA:123,23
DA:124,23
DA:126,23
DA:127,23
DA:128,23
DA:129,23
DA:130,23
DA:131,23
DA:132,23
DA:133,23
DA:134,23
DA:135,23
DA:136,23
DA:137,23
DA:138,46
DA:139,46
DA:140,16
DA:141,30
DA:143,30
DA:144,30
DA:145,376
DA:146,376
DA:147,0
DA:148,376
DA:149,376
DA:150,22
DA:151,354
DA:152,376
DA:155,30
DA:156,30
DA:157,376
DA:158,376
DA:159,376
DA:160,376
DA:161,30
DA:162,23
DA:163,23
DA:164,7
DA:165,7
DA:166,7
DA:167,0
DA:169,30
DA:170,30
DA:171,30
DA:172,30
DA:174,23
DA:176,50
DA:177,50
DA:178,50
DA:179,50
DA:180,50
DA:181,50
DA:182,50
DA:183,50
DA:184,50
DA:185,50
DA:186,50
DA:187,50
DA:188,50
DA:189,50
DA:190,50
DA:191,50
DA:192,50
DA:193,50
DA:194,50
DA:196,50
DA:198,51520
DA:199,51520
DA:200,8464
DA:201,43056
DA:202,43056
DA:203,16992
DA:205,26064
DA:207,51520
DA:209,12880
DA:210,12880
DA:211,12880
DA:212,12880
DA:213,12880
DA:214,12880
DA:215,12880
DA:216,12880
DA:217,12880
DA:218,12880
DA:219,12880
DA:220,12880
DA:221,12880
DA:222,12880
DA:223,12880
DA:224,12880
DA:225,12880
DA:226,12880
DA:227,12880
DA:228,4565
DA:230,8315
DA:232,12880
DA:234,23
DA:235,23
DA:236,23
DA:237,23
DA:238,23
DA:239,23
DA:240,23
DA:241,23
DA:242,23
DA:243,23
DA:244,23
DA:245,23
DA:246,23
DA:247,644
DA:248,644
DA:249,644
DA:250,644
DA:251,12880
DA:252,12880
DA:253,12880
DA:254,12880
DA:255,9263
DA:256,9263
DA:257,3617
DA:258,2973
DA:259,2973
DA:260,3617
DA:261,3617
DA:262,3617
DA:265,644
DA:266,644
DA:267,644
DA:269,23
DA:271,1759
DA:272,1759
DA:273,60
DA:274,7
DA:275,35
DA:276,2
DA:277,6
DA:278,7
DA:279,1
DA:280,0
DA:281,4
DA:282,1
DA:283,55
DA:284,50
DA:285,5
DA:286,124
DA:287,60
DA:288,44
DA:289,69
DA:290,180
DA:291,15
DA:292,38
DA:293,22
DA:294,71
DA:295,0
DA:296,16
DA:297,41
DA:298,45
DA:299,83
DA:300,102
DA:301,33
DA:302,0
DA:303,128
DA:304,158
DA:305,107
DA:306,43
DA:307,6
DA:308,15
DA:309,14
DA:310,5
DA:311,3
DA:312,104
DA:314,1759
DA:322,1
DA:323,1
DA:324,1
DA:325,1
DA:326,1
DA:327,1
DA:328,1
DA:330,1
BRF:0
BRH:0
LF:278
LH:272
end_of_record
SF:/Users/ivan/projects/github/esp/orion-rust/crates/orion-core/src/game2048.rs
FN:626,_RNCNvNtNtCs20Ygd6RoaGo_10orion_core8game20485testss_34place_random_tile_fills_empty_cell0B7_
FN:629,_RNCNvNtNtCs20Ygd6RoaGo_10orion_core8game20485testss_34place_random_tile_fills_empty_cells_0B7_
FN:16,_RNvMNtCs20Ygd6RoaGo_10orion_core8game2048NtB2_8GridSize4size
FN:24,_RNvMNtCs20Ygd6RoaGo_10orion_core8game2048NtB2_8GridSize5index
FN:40,_RNvMNtCs20Ygd6RoaGo_10orion_core8game2048NtB2_8GridSize5label
FN:127,_RNvMs0_NtCs20Ygd6RoaGo_10orion_core8game2048NtB5_8Game204810best_score
FN:307,_RNvMs0_NtCs20Ygd6RoaGo_10orion_core8game2048NtB5_8Game204812is_game_over
FN:131,_RNvMs0_NtCs20Ygd6RoaGo_10orion_core8game2048NtB5_8Game204812pause_action
FN:135,_RNvMs0_NtCs20Ygd6RoaGo_10orion_core8game2048NtB5_8Game204814choosing_field
FN:151,_RNvMs0_NtCs20Ygd6RoaGo_10orion_core8game2048NtB5_8Game204816adjust_grid_size
FN:139,_RNvMs0_NtCs20Ygd6RoaGo_10orion_core8game2048NtB5_8Game204816game_over_action
FN:196,_RNvMs0_NtCs20Ygd6RoaGo_10orion_core8game2048NtB5_8Game204818cycle_pause_action
FN:203,_RNvMs0_NtCs20Ygd6RoaGo_10orion_core8game2048NtB5_8Game204820cycle_choosing_field
FN:210,_RNvMs0_NtCs20Ygd6RoaGo_10orion_core8game2048NtB5_8Game204822cycle_game_over_action
FN:217,_RNvMs0_NtCs20Ygd6RoaGo_10orion_core8game2048NtB5_8Game204826select_next_choosing_field
FN:226,_RNvMs0_NtCs20Ygd6RoaGo_10orion_core8game2048NtB5_8Game204830select_previous_choosing_field
FN:147,_RNvMs0_NtCs20Ygd6RoaGo_10orion_core8game2048NtB5_8Game20484cell
FN:143,_RNvMs0_NtCs20Ygd6RoaGo_10orion_core8game2048NtB5_8Game20484grid
FN:115,_RNvMs0_NtCs20Ygd6RoaGo_10orion_core8game2048NtB5_8Game20484mode
FN:123,_RNvMs0_NtCs20Ygd6RoaGo_10orion_core8game2048NtB5_8Game20485score
FN:235,_RNvMs0_NtCs20Ygd6RoaGo_10orion_core8game2048NtB5_8Game20485slide
FN:119,_RNvMs0_NtCs20Ygd6RoaGo_10orion_core8game2048NtB5_8Game20489grid_size
FN:351,_RNvNtCs20Ygd6RoaGo_10orion_core8game204810slide_line
FN:418,_RNvNtCs20Ygd6RoaGo_10orion_core8game204812write_col_up
FN:410,_RNvNtCs20Ygd6RoaGo_10orion_core8game204814extract_col_up
FN:432,_RNvNtCs20Ygd6RoaGo_10orion_core8game204814write_col_down
FN:390,_RNvNtCs20Ygd6RoaGo_10orion_core8game204814write_row_left
FN:404,_RNvNtCs20Ygd6RoaGo_10orion_core8game204815write_row_right
FN:424,_RNvNtCs20Ygd6RoaGo_10orion_core8game204816extract_col_down
FN:382,_RNvNtCs20Ygd6RoaGo_10orion_core8game204816extract_row_left
FN:396,_RNvNtCs20Ygd6RoaGo_10orion_core8game204817extract_row_right
FN:88,_RNvXs_NtCs20Ygd6RoaGo_10orion_core8game2048NtB4_8Game2048NtNtCs6sq8b9ugfBC_4core7default7Default7default
FN:163,_RINvMs0_NtCs20Ygd6RoaGo_10orion_core8game2048NtB6_8Game204812press_switchNtNtB8_5store20MemoryHighScoreStoreNtNtB8_3rng11ScriptedRngEB8_
FN:103,_RINvMs0_NtCs20Ygd6RoaGo_10orion_core8game2048NtB6_8Game204814enter_choosingNtNtB8_5store20MemoryHighScoreStoreEB8_
FN:341,_RINvMs0_NtCs20Ygd6RoaGo_10orion_core8game2048NtB6_8Game204814start_new_gameNtNtB8_5store20MemoryHighScoreStoreNtNtB8_3rng11ScriptedRngEB8_
FN:326,_RINvMs0_NtCs20Ygd6RoaGo_10orion_core8game2048NtB6_8Game204815enter_game_overNtNtB8_5store20MemoryHighScoreStoreEB8_
FN:283,_RINvMs0_NtCs20Ygd6RoaGo_10orion_core8game2048NtB6_8Game204817place_random_tileNtNtB8_3rng11ScriptedRngEB8_
FN:334,_RINvMs0_NtCs20Ygd6RoaGo_10orion_core8game2048NtB6_8Game204817update_best_scoreNtNtB8_5store20MemoryHighScoreStoreEB8_
FN:111,_RINvMs0_NtCs20Ygd6RoaGo_10orion_core8game2048NtB6_8Game204818refresh_best_scoreNtNtB8_5store20MemoryHighScoreStoreEB8_
FN:444,_RNvNtNtCs20Ygd6RoaGo_10orion_core8game20485tests9make_grid
FN:660,_RNvNtNtCs20Ygd6RoaGo_10orion_core8game20485testss_16small_grid_slide
FN:644,_RNvNtNtCs20Ygd6RoaGo_10orion_core8game20485testss_17grid_size_cycling
FN:560,_RNvNtNtCs20Ygd6RoaGo_10orion_core8game20485testss_22slide_up_merges_column
FN:543,_RNvNtNtCs20Ygd6RoaGo_10orion_core8game20485testss_24slide_down_merges_column
FN:490,_RNvNtNtCs20Ygd6RoaGo_10orion_core8game20485testss_24slide_right_shifts_tiles
FN:527,_RNvNtNtCs20Ygd6RoaGo_10orion_core8game20485testss_25slide_adds_score_on_merge
FN:455,_RNvNtNtCs20Ygd6RoaGo_10orion_core8game20485testss_26slide_left_merges_adjacent
FN:678,_RNvNtNtCs20Ygd6RoaGo_10orion_core8game20485testss_26update_best_score_persists
FN:508,_RNvNtNtCs20Ygd6RoaGo_10orion_core8game20485testss_31slide_merges_only_once_per_move
FN:474,_RNvNtNtCs20Ygd6RoaGo_10orion_core8game20485testss_32slide_left_no_move_returns_false
FN:603,_RNvNtNtCs20Ygd6RoaGo_10orion_core8game20485testss_34is_game_over_false_with_empty_cell
FN:616,_RNvNtNtCs20Ygd6RoaGo_10orion_core8game20485testss_34place_random_tile_fills_empty_cell
FN:634,_RNvNtNtCs20Ygd6RoaGo_10orion_core8game20485testss_38press_switch_starts_game_from_choosing
FN:590,_RNvNtNtCs20Ygd6RoaGo_10orion_core8game20485testss_39is_game_over_false_with_merge_available
FN:577,_RNvNtNtCs20Ygd6RoaGo_10orion_core8game20485testss_41is_game_over_detects_full_board_no_merges
FN:691,_RNvNtNtCs20Ygd6RoaGo_10orion_core8game20485testss_44enter_game_over_sets_mode_and_persists_score
FN:32,_RNvMNtCs20Ygd6RoaGo_10orion_core8game2048NtB2_8GridSize10from_index
FNDA:20,_RNCNvNtNtCs20Ygd6RoaGo_10orion_core8game20485testss_34place_random_tile_fills_empty_cell0B7_
FNDA:1,_RNCNvNtNtCs20Ygd6RoaGo_10orion_core8game20485testss_34place_random_tile_fills_empty_cells_0B7_
FNDA:108,_RNvMNtCs20Ygd6RoaGo_10orion_core8game2048NtB2_8GridSize4size
FNDA:46,_RNvMNtCs20Ygd6RoaGo_10orion_core8game2048NtB2_8GridSize5index
FNDA:2,_RNvMNtCs20Ygd6RoaGo_10orion_core8game2048NtB2_8GridSize5label
FNDA:21,_RNvMs0_NtCs20Ygd6RoaGo_10orion_core8game2048NtB5_8Game204810best_score
FNDA:7,_RNvMs0_NtCs20Ygd6RoaGo_10orion_core8game2048NtB5_8Game204812is_game_over
FNDA:4,_RNvMs0_NtCs20Ygd6RoaGo_10orion_core8game2048NtB5_8Game204812pause_action
FNDA:13,_RNvMs0_NtCs20Ygd6RoaGo_10orion_core8game2048NtB5_8Game204814choosing_field
FNDA:6,_RNvMs0_NtCs20Ygd6RoaGo_10orion_core8game2048NtB5_8Game204816adjust_grid_size
FNDA:3,_RNvMs0_NtCs20Ygd6RoaGo_10orion_core8game2048NtB5_8Game204816game_over_action
FNDA:1,_RNvMs0_NtCs20Ygd6RoaGo_10orion_core8game2048NtB5_8Game204818cycle_pause_action
FNDA:1,_RNvMs0_NtCs20Ygd6RoaGo_10orion_core8game2048NtB5_8Game204820cycle_choosing_field
FNDA:0,_RNvMs0_NtCs20Ygd6RoaGo_10orion_core8game2048NtB5_8Game204822cycle_game_over_action
FNDA:0,_RNvMs0_NtCs20Ygd6RoaGo_10orion_core8game2048NtB5_8Game204826select_next_choosing_field
FNDA:0,_RNvMs0_NtCs20Ygd6RoaGo_10orion_core8game2048NtB5_8Game204830select_previous_choosing_field
FNDA:111,_RNvMs0_NtCs20Ygd6RoaGo_10orion_core8game2048NtB5_8Game20484cell
FNDA:102,_RNvMs0_NtCs20Ygd6RoaGo_10orion_core8game2048NtB5_8Game20484grid
FNDA:28,_RNvMs0_NtCs20Ygd6RoaGo_10orion_core8game2048NtB5_8Game20484mode
FNDA:20,_RNvMs0_NtCs20Ygd6RoaGo_10orion_core8game2048NtB5_8Game20485score
FNDA:14,_RNvMs0_NtCs20Ygd6RoaGo_10orion_core8game2048NtB5_8Game20485slide
FNDA:55,_RNvMs0_NtCs20Ygd6RoaGo_10orion_core8game2048NtB5_8Game20489grid_size
FNDA:55,_RNvNtCs20Ygd6RoaGo_10orion_core8game204810slide_line
FNDA:4,_RNvNtCs20Ygd6RoaGo_10orion_core8game204812write_col_up
FNDA:4,_RNvNtCs20Ygd6RoaGo_10orion_core8game204814extract_col_up
FNDA:4,_RNvNtCs20Ygd6RoaGo_10orion_core8game204814write_col_down
FNDA:23,_RNvNtCs20Ygd6RoaGo_10orion_core8game204814write_row_left
FNDA:24,_RNvNtCs20Ygd6RoaGo_10orion_core8game204815write_row_right
FNDA:4,_RNvNtCs20Ygd6RoaGo_10orion_core8game204816extract_col_down
FNDA:23,_RNvNtCs20Ygd6RoaGo_10orion_core8game204816extract_row_left
FNDA:24,_RNvNtCs20Ygd6RoaGo_10orion_core8game204817extract_row_right
FNDA:34,_RNvXs_NtCs20Ygd6RoaGo_10orion_core8game2048NtB4_8Game2048NtNtCs6sq8b9ugfBC_4core7default7Default7default
FNDA:15,_RINvMs0_NtCs20Ygd6RoaGo_10orion_core8game2048NtB6_8Game204812press_switchNtNtB8_5store20MemoryHighScoreStoreNtNtB8_3rng11ScriptedRngEB8_
FNDA:8,_RINvMs0_NtCs20Ygd6RoaGo_10orion_core8game2048NtB6_8Game204814enter_choosingNtNtB8_5store20MemoryHighScoreStoreEB8_
FNDA:12,_RINvMs0_NtCs20Ygd6RoaGo_10orion_core8game2048NtB6_8Game204814start_new_gameNtNtB8_5store20MemoryHighScoreStoreNtNtB8_3rng11ScriptedRngEB8_
FNDA:1,_RINvMs0_NtCs20Ygd6RoaGo_10orion_core8game2048NtB6_8Game204815enter_game_overNtNtB8_5store20MemoryHighScoreStoreEB8_
FNDA:31,_RINvMs0_NtCs20Ygd6RoaGo_10orion_core8game2048NtB6_8Game204817place_random_tileNtNtB8_3rng11ScriptedRngEB8_
FNDA:2,_RINvMs0_NtCs20Ygd6RoaGo_10orion_core8game2048NtB6_8Game204817update_best_scoreNtNtB8_5store20MemoryHighScoreStoreEB8_
FNDA:9,_RINvMs0_NtCs20Ygd6RoaGo_10orion_core8game2048NtB6_8Game204818refresh_best_scoreNtNtB8_5store20MemoryHighScoreStoreEB8_
FNDA:12,_RNvNtNtCs20Ygd6RoaGo_10orion_core8game20485tests9make_grid
FNDA:1,_RNvNtNtCs20Ygd6RoaGo_10orion_core8game20485testss_16small_grid_slide
FNDA:1,_RNvNtNtCs20Ygd6RoaGo_10orion_core8game20485testss_17grid_size_cycling
FNDA:1,_RNvNtNtCs20Ygd6RoaGo_10orion_core8game20485testss_22slide_up_merges_column
FNDA:1,_RNvNtNtCs20Ygd6RoaGo_10orion_core8game20485testss_24slide_down_merges_column
FNDA:1,_RNvNtNtCs20Ygd6RoaGo_10orion_core8game20485testss_24slide_right_shifts_tiles
FNDA:1,_RNvNtNtCs20Ygd6RoaGo_10orion_core8game20485testss_25slide_adds_score_on_merge
FNDA:1,_RNvNtNtCs20Ygd6RoaGo_10orion_core8game20485testss_26slide_left_merges_adjacent
FNDA:1,_RNvNtNtCs20Ygd6RoaGo_10orion_core8game20485testss_26update_best_score_persists
FNDA:1,_RNvNtNtCs20Ygd6RoaGo_10orion_core8game20485testss_31slide_merges_only_once_per_move
FNDA:1,_RNvNtNtCs20Ygd6RoaGo_10orion_core8game20485testss_32slide_left_no_move_returns_false
FNDA:1,_RNvNtNtCs20Ygd6RoaGo_10orion_core8game20485testss_34is_game_over_false_with_empty_cell
FNDA:1,_RNvNtNtCs20Ygd6RoaGo_10orion_core8game20485testss_34place_random_tile_fills_empty_cell
FNDA:1,_RNvNtNtCs20Ygd6RoaGo_10orion_core8game20485testss_38press_switch_starts_game_from_choosing
FNDA:1,_RNvNtNtCs20Ygd6RoaGo_10orion_core8game20485testss_39is_game_over_false_with_merge_available
FNDA:1,_RNvNtNtCs20Ygd6RoaGo_10orion_core8game20485testss_41is_game_over_detects_full_board_no_merges
FNDA:1,_RNvNtNtCs20Ygd6RoaGo_10orion_core8game20485testss_44enter_game_over_sets_mode_and_persists_score
FNDA:0,_RNvMNtCs20Ygd6RoaGo_10orion_core8game2048NtB2_8GridSize10from_index
FNF:57
FNH:53
DA:16,108
DA:17,108
DA:18,2
DA:19,105
DA:20,1
DA:22,108
DA:24,46
DA:25,46
DA:26,4
DA:27,38
DA:28,4
DA:30,46
DA:32,0
DA:33,0
DA:34,0
DA:35,0
DA:36,0
DA:38,0
DA:40,2
DA:41,2
DA:42,0
DA:43,2
DA:44,0
DA:46,2
DA:88,34
DA:89,34
DA:90,34
DA:91,34
DA:92,34
DA:93,34
DA:94,34
DA:95,34
DA:96,34
DA:97,34
DA:98,34
DA:99,34
DA:103,8
DA:104,8
DA:105,8
DA:106,8
DA:107,8
DA:108,8
DA:109,8
DA:111,9
DA:112,9
DA:113,9
DA:115,28
DA:116,28
DA:117,28
DA:119,55
DA:120,55
DA:121,55
DA:123,20
DA:124,20
DA:125,20
DA:127,21
DA:128,21
DA:129,21
DA:131,4
DA:132,4
DA:133,4
DA:135,13
DA:136,13
DA:137,13
DA:139,3
DA:140,3
DA:141,3
DA:143,102
DA:144,102
DA:145,102
DA:147,111
DA:148,111
DA:149,111
DA:151,6
DA:152,6
DA:153,6
DA:154,6
DA:155,6
DA:156,6
DA:157,2
DA:158,4
DA:159,4
DA:160,4
DA:161,6
DA:163,15
DA:164,15
DA:165,15
DA:166,15
DA:167,15
DA:168,15
DA:170,12
DA:171,12
DA:174,2
DA:175,2
DA:176,2
DA:179,1
DA:180,1
DA:181,1
DA:182,1
DA:183,0
DA:184,0
DA:185,0
DA:187,1
DA:190,0
DA:191,0
DA:194,15
DA:196,1
DA:197,1
DA:198,1
DA:199,0
DA:201,1
DA:203,1
DA:204,1
DA:205,1
DA:206,0
DA:208,1
DA:210,0
DA:211,0
DA:212,0
DA:213,0
DA:215,0
DA:217,0
DA:218,0
DA:219,0
DA:220,0
DA:222,0
DA:224,0
DA:226,0
DA:227,0
DA:228,0
DA:229,0
DA:231,0
DA:233,0
DA:235,14
DA:236,14
DA:237,0
DA:238,14
DA:240,14
DA:241,14
DA:242,14
DA:244,14
DA:246,23
DA:247,23
DA:248,23
DA:249,23
DA:250,23
DA:253,24
DA:254,24
DA:255,24
DA:256,24
DA:257,24
DA:260,4
DA:261,4
DA:262,4
DA:263,4
DA:264,4
DA:267,4
DA:268,4
DA:269,4
DA:270,4
DA:271,4
DA:275,14
DA:276,13
DA:277,13
DA:279,1
DA:281,14
DA:283,31
DA:284,31
DA:285,31
DA:286,31
DA:288,124
DA:289,496
DA:290,496
DA:291,496
DA:292,472
DA:293,472
DA:294,472
DA:298,31
DA:299,0
DA:300,31
DA:302,31
DA:303,31
DA:304,31
DA:305,31
DA:307,7
DA:308,7
DA:309,17
DA:310,58
DA:311,58
DA:312,58
DA:313,4
DA:314,54
DA:315,54
DA:316,0
DA:317,54
DA:318,54
DA:319,1
DA:320,53
DA:323,2
DA:324,7
DA:326,1
DA:327,1
DA:328,1
DA:329,1
DA:330,1
DA:331,1
DA:332,1
DA:334,2
DA:335,2
DA:336,1
DA:337,1
DA:338,2
DA:339,2
DA:341,12
DA:342,12
DA:343,12
DA:344,12
DA:345,12
DA:346,12
DA:347,12
DA:348,12
DA:351,55
DA:352,55
DA:353,55
DA:354,217
DA:355,217
DA:356,38
DA:357,38
DA:358,179
DA:361,55
DA:362,55
DA:363,55
DA:364,55
DA:365,83
DA:366,28
DA:367,10
DA:368,10
DA:369,10
DA:370,10
DA:371,18
DA:372,18
DA:373,18
DA:374,18
DA:375,28
DA:378,55
DA:379,55
DA:380,55
DA:382,23
DA:383,23
DA:384,89
DA:385,89
DA:386,89
DA:387,23
DA:388,23
DA:390,23
DA:391,89
DA:392,89
DA:393,89
DA:394,23
DA:396,24
DA:397,24
DA:398,96
DA:399,96
DA:400,96
DA:401,24
DA:402,24
DA:404,24
DA:405,96
DA:406,96
DA:407,96
DA:408,24
DA:410,4
DA:411,4
DA:412,16
DA:413,16
DA:414,16
DA:415,4
DA:416,4
DA:418,4
DA:419,16
DA:420,16
DA:421,16
DA:422,4
DA:424,4
DA:425,4
DA:426,16
DA:427,16
DA:428,16
DA:429,4
DA:430,4
DA:432,4
DA:433,16
DA:434,16
DA:435,16
DA:436,4
DA:444,12
DA:445,12
DA:446,47
DA:447,185
DA:448,185
DA:449,185
DA:451,12
DA:452,12
DA:455,1
DA:456,1
DA:457,1
DA:458,1
DA:459,1
DA:460,1
DA:461,1
DA:462,1
DA:463,1
DA:464,1
DA:466,1
DA:467,1
DA:468,1
DA:469,1
DA:470,1
DA:471,1
DA:474,1
DA:475,1
DA:476,1
DA:477,1
DA:478,1
DA:479,1
DA:480,1
DA:481,1
DA:482,1
DA:483,1
DA:485,1
DA:486,1
DA:487,1
DA:490,1
DA:491,1
DA:492,1
DA:493,1
DA:494,1
DA:495,1
DA:496,1
DA:497,1
DA:498,1
DA:499,1
DA:501,1
DA:502,1
DA:503,1
DA:504,1
DA:505,1
DA:508,1
DA:509,1
DA:510,1
DA:511,1
DA:512,1
DA:513,1
DA:514,1
DA:515,1
DA:516,1
DA:517,1
DA:519,1
DA:520,1
DA:521,1
DA:522,1
DA:523,1
DA:524,1
DA:527,1
DA:528,1
DA:529,1
DA:530,1
DA:531,1
DA:532,1
DA:533,1
DA:534,1
DA:535,1
DA:536,1
DA:538,1
DA:539,1
DA:540,1
DA:543,1
DA:544,1
DA:545,1
DA:546,1
DA:547,1
DA:548,1
DA:549,1
DA:550,1
DA:551,1
DA:552,1
DA:554,1
DA:555,1
DA:556,1
DA:557,1
DA:560,1
DA:561,1
DA:562,1
DA:563,1
DA:564,1
DA:565,1
DA:566,1
DA:567,1
DA:568,1
DA:569,1
DA:571,1
DA:572,1
DA:573,1
DA:574,1
DA:577,1
DA:578,1
DA:579,1
DA:580,1
DA:581,1
DA:582,1
DA:583,1
DA:584,1
DA:585,1
DA:586,1
DA:587,1
DA:590,1
DA:591,1
DA:592,1
DA:593,1
DA:594,1
DA:595,1
DA:596,1
DA:597,1
DA:598,1
DA:599,1
DA:600,1
DA:603,1
DA:604,1
DA:605,1
DA:606,1
DA:607,1
DA:608,1
DA:609,1
DA:610,1
DA:611,1
DA:612,1
DA:613,1
DA:616,1
DA:617,1
DA:618,1
DA:619,1
DA:620,1
DA:622,1
DA:624,1
DA:625,1
DA:626,20
DA:627,1
DA:628,1
DA:629,1
DA:630,1
DA:631,1
DA:634,1
DA:635,1
DA:636,1
DA:637,1
DA:639,1
DA:640,1
DA:641,1
DA:644,1
DA:645,1
DA:646,1
DA:647,1
DA:648,1
DA:649,1
DA:650,1
DA:651,1
DA:652,1
DA:653,1
DA:654,1
DA:655,1
DA:656,1
DA:657,1
DA:660,1
DA:661,1
DA:662,1
DA:663,1
DA:664,1
DA:665,1
DA:666,1
DA:667,1
DA:668,1
DA:670,1
DA:671,1
DA:672,1
DA:673,1
DA:674,1
DA:675,1
DA:678,1
DA:679,1
DA:680,1
DA:681,1
DA:682,1
DA:684,1
DA:686,1
DA:687,1
DA:688,1
DA:691,1
DA:692,1
DA:693,1
DA:694,1
DA:695,1
DA:696,1
DA:697,1
DA:698,1
DA:699,1
DA:700,1
DA:701,1
DA:702,1
DA:704,1
DA:705,1
DA:706,1
DA:707,1
DA:708,1
BRF:0
BRH:0
LF:515
LH:480
end_of_record
SF:/Users/ivan/projects/github/esp/orion-rust/crates/orion-core/src/game2048_application.rs
FN:389,_RNvNtNtCs20Ygd6RoaGo_10orion_core20game2048_application5testss_28pause_switch_resumes_playing
FN:470,_RNvNtNtCs20Ygd6RoaGo_10orion_core20game2048_application5testss_30pause_exit_returns_to_launcher
FN:364,_RNvNtNtCs20Ygd6RoaGo_10orion_core20game2048_application5testss_32grid_size_adjustment_in_choosing
FN:295,_RNvNtNtCs20Ygd6RoaGo_10orion_core20game2048_application5testss_32switch_starts_game_from_choosing
FN:443,_RNvNtNtCs20Ygd6RoaGo_10orion_core20game2048_application5testss_33choosing_exit_returns_to_launcher
FN:321,_RNvNtNtCs20Ygd6RoaGo_10orion_core20game2048_application5testss_34direction_slides_tiles_during_play
FN:527,_RNvNtNtCs20Ygd6RoaGo_10orion_core20game2048_application5testss_34game_over_exit_returns_to_launcher
FN:555,_RNvNtNtCs20Ygd6RoaGo_10orion_core20game2048_application5testss_35delta_render_produces_draw_commands
FN:95,_RINvMNtCs20Ygd6RoaGo_10orion_core20game2048_applicationNtB3_19Game2048Application12handle_inputNtNtB5_5store20MemoryHighScoreStoreNtNtB5_3rng11ScriptedRngEB5_
FN:207,_RINvMNtCs20Ygd6RoaGo_10orion_core20game2048_applicationNtB3_19Game2048Application19handle_paused_inputNtNtB5_5store20MemoryHighScoreStoreNtNtB5_3rng11ScriptedRngEB5_
FN:173,_RINvMNtCs20Ygd6RoaGo_10orion_core20game2048_applicationNtB3_19Game2048Application20handle_playing_inputNtNtB5_5store20MemoryHighScoreStoreNtNtB5_3rng11ScriptedRngEB5_
FN:117,_RINvMNtCs20Ygd6RoaGo_10orion_core20game2048_applicationNtB3_19Game2048Application21handle_choosing_inputNtNtB5_5store20MemoryHighScoreStoreNtNtB5_3rng11ScriptedRngEB5_
FN:239,_RINvMNtCs20Ygd6RoaGo_10orion_core20game2048_applicationNtB3_19Game2048Application22handle_game_over_inputNtNtB5_5store20MemoryHighScoreStoreNtNtB5_3rng11ScriptedRngEB5_
FN:43,_RINvMNtCs20Ygd6RoaGo_10orion_core20game2048_applicationNtB3_19Game2048Application5enterNtNtB5_5store20MemoryHighScoreStoreEB5_
FN:47,_RINvMNtCs20Ygd6RoaGo_10orion_core20game2048_applicationNtB3_19Game2048Application6updateNtNtB5_6render16RecordingDisplayNtNtB5_5store20MemoryHighScoreStoreNtNtB5_3rng11ScriptedRngEB5_
FN:271,_RNvMNtCs20Ygd6RoaGo_10orion_core20game2048_applicationNtB2_19Game2048Application21accept_menu_direction
FN:29,_RNvMNtCs20Ygd6RoaGo_10orion_core20game2048_applicationNtB2_19Game2048Application3new
FN:91,_RNvMNtCs20Ygd6RoaGo_10orion_core20game2048_applicationNtB2_19Game2048Application4game
FN:77,_RINvMNtCs20Ygd6RoaGo_10orion_core20game2048_applicationNtB3_19Game2048Application11render_fullpEB5_
FN:39,_RNvMNtCs20Ygd6RoaGo_10orion_core20game2048_applicationNtB2_19Game2048Application5title
FN:281,_RNvXs_NtCs20Ygd6RoaGo_10orion_core20game2048_applicationNtB4_19Game2048ApplicationNtNtCs6sq8b9ugfBC_4core7default7Default7default
FNDA:1,_RNvNtNtCs20Ygd6RoaGo_10orion_core20game2048_application5testss_28pause_switch_resumes_playing
FNDA:1,_RNvNtNtCs20Ygd6RoaGo_10orion_core20game2048_application5testss_30pause_exit_returns_to_launcher
FNDA:1,_RNvNtNtCs20Ygd6RoaGo_10orion_core20game2048_application5testss_32grid_size_adjustment_in_choosing
FNDA:1,_RNvNtNtCs20Ygd6RoaGo_10orion_core20game2048_application5testss_32switch_starts_game_from_choosing
FNDA:1,_RNvNtNtCs20Ygd6RoaGo_10orion_core20game2048_application5testss_33choosing_exit_returns_to_launcher
FNDA:1,_RNvNtNtCs20Ygd6RoaGo_10orion_core20game2048_application5testss_34direction_slides_tiles_during_play
FNDA:1,_RNvNtNtCs20Ygd6RoaGo_10orion_core20game2048_application5testss_34game_over_exit_returns_to_launcher
FNDA:1,_RNvNtNtCs20Ygd6RoaGo_10orion_core20game2048_application5testss_35delta_render_produces_draw_commands
FNDA:15,_RINvMNtCs20Ygd6RoaGo_10orion_core20game2048_applicationNtB3_19Game2048Application12handle_inputNtNtB5_5store20MemoryHighScoreStoreNtNtB5_3rng11ScriptedRngEB5_
FNDA:2,_RINvMNtCs20Ygd6RoaGo_10orion_core20game2048_applicationNtB3_19Game2048Application19handle_paused_inputNtNtB5_5store20MemoryHighScoreStoreNtNtB5_3rng11ScriptedRngEB5_
FNDA:5,_RINvMNtCs20Ygd6RoaGo_10orion_core20game2048_applicationNtB3_19Game2048Application20handle_playing_inputNtNtB5_5store20MemoryHighScoreStoreNtNtB5_3rng11ScriptedRngEB5_
FNDA:7,_RINvMNtCs20Ygd6RoaGo_10orion_core20game2048_applicationNtB3_19Game2048Application21handle_choosing_inputNtNtB5_5store20MemoryHighScoreStoreNtNtB5_3rng11ScriptedRngEB5_
FNDA:1,_RINvMNtCs20Ygd6RoaGo_10orion_core20game2048_applicationNtB3_19Game2048Application22handle_game_over_inputNtNtB5_5store20MemoryHighScoreStoreNtNtB5_3rng11ScriptedRngEB5_
FNDA:8,_RINvMNtCs20Ygd6RoaGo_10orion_core20game2048_applicationNtB3_19Game2048Application5enterNtNtB5_5store20MemoryHighScoreStoreEB5_
FNDA:15,_RINvMNtCs20Ygd6RoaGo_10orion_core20game2048_applicationNtB3_19Game2048Application6updateNtNtB5_6render16RecordingDisplayNtNtB5_5store20MemoryHighScoreStoreNtNtB5_3rng11ScriptedRngEB5_
FNDA:0,_RNvMNtCs20Ygd6RoaGo_10orion_core20game2048_applicationNtB2_19Game2048Application21accept_menu_direction
FNDA:8,_RNvMNtCs20Ygd6RoaGo_10orion_core20game2048_applicationNtB2_19Game2048Application3new
FNDA:7,_RNvMNtCs20Ygd6RoaGo_10orion_core20game2048_applicationNtB2_19Game2048Application4game
FNDA:0,_RINvMNtCs20Ygd6RoaGo_10orion_core20game2048_applicationNtB3_19Game2048Application11render_fullpEB5_
FNDA:0,_RNvMNtCs20Ygd6RoaGo_10orion_core20game2048_applicationNtB2_19Game2048Application5title
FNDA:0,_RNvXs_NtCs20Ygd6RoaGo_10orion_core20game2048_applicationNtB4_19Game2048ApplicationNtNtCs6sq8b9ugfBC_4core7default7Default7default
FNF:21
FNH:17
DA:29,8
DA:30,8
DA:31,8
DA:32,8
DA:33,8
DA:34,8
DA:35,8
DA:36,8
DA:37,8
DA:39,0
DA:40,0
DA:41,0
DA:43,8
DA:44,8
DA:45,8
DA:47,15
DA:48,15
DA:49,15
DA:50,15
DA:51,15
DA:52,15
DA:53,15
DA:54,15
DA:55,15
DA:56,15
DA:57,15
DA:58,3
DA:59,12
DA:61,12
DA:62,0
DA:63,9
DA:65,3
DA:66,3
DA:67,3
DA:68,3
DA:69,3
DA:70,3
DA:72,3
DA:75,15
DA:77,0
DA:78,0
DA:79,0
DA:80,0
DA:81,0
DA:82,0
DA:83,0
DA:84,0
DA:85,0
DA:86,0
DA:87,0
DA:89,0
DA:91,7
DA:92,7
DA:93,7
DA:95,15
DA:96,15
DA:97,15
DA:98,15
DA:99,15
DA:100,15
DA:101,15
DA:102,15
DA:103,15
DA:105,7
DA:107,5
DA:109,2
DA:112,1
DA:115,15
DA:117,7
DA:118,7
DA:119,7
DA:120,7
DA:121,7
DA:122,7
DA:123,7
DA:124,7
DA:125,7
DA:126,7
DA:127,6
DA:128,1
DA:129,1
DA:130,5
DA:131,5
DA:132,5
DA:133,1
DA:134,1
DA:135,1
DA:136,1
DA:137,1
DA:138,0
DA:139,0
DA:140,0
DA:141,0
DA:142,1
DA:143,0
DA:145,0
DA:146,0
DA:147,0
DA:150,0
DA:151,0
DA:152,0
DA:155,0
DA:158,0
DA:160,0
DA:162,1
DA:163,1
DA:164,1
DA:165,1
DA:166,1
DA:167,1
DA:169,0
DA:171,7
DA:173,5
DA:174,5
DA:175,5
DA:176,5
DA:177,5
DA:178,5
DA:179,5
DA:180,5
DA:181,5
DA:182,5
DA:184,3
DA:185,3
DA:186,3
DA:188,3
DA:189,3
DA:190,3
DA:191,0
DA:192,0
DA:193,3
DA:194,3
DA:195,0
DA:196,0
DA:197,0
DA:198,0
DA:199,2
DA:200,2
DA:201,2
DA:202,2
DA:203,0
DA:204,0
DA:205,5
DA:207,2
DA:208,2
DA:209,2
DA:210,2
DA:211,2
DA:212,2
DA:213,2
DA:214,2
DA:215,2
DA:216,0
DA:217,0
DA:218,2
DA:219,2
DA:220,0
DA:221,0
DA:224,0
DA:225,0
DA:226,0
DA:227,2
DA:228,2
DA:229,2
DA:230,1
DA:231,1
DA:232,1
DA:233,1
DA:234,1
DA:235,0
DA:236,0
DA:237,2
DA:239,1
DA:240,1
DA:241,1
DA:242,1
DA:243,1
DA:244,1
DA:245,1
DA:246,1
DA:247,1
DA:248,0
DA:249,0
DA:250,1
DA:251,1
DA:252,0
DA:253,0
DA:256,0
DA:257,0
DA:258,0
DA:259,1
DA:260,1
DA:261,1
DA:262,1
DA:263,1
DA:264,0
DA:265,0
DA:266,0
DA:267,0
DA:268,0
DA:269,1
DA:271,0
DA:272,0
DA:273,0
DA:274,0
DA:275,0
DA:276,0
DA:277,0
DA:281,0
DA:282,0
DA:283,0
DA:295,1
DA:296,1
DA:297,1
DA:298,1
DA:299,1
DA:300,1
DA:302,1
DA:303,1
DA:304,1
DA:305,1
DA:306,1
DA:307,1
DA:308,1
DA:309,1
DA:310,1
DA:311,1
DA:312,1
DA:316,1
DA:317,1
DA:318,1
DA:321,1
DA:322,1
DA:323,1
DA:324,1
DA:325,1
DA:326,1
DA:328,1
DA:329,1
DA:330,1
DA:331,1
DA:332,1
DA:333,1
DA:334,1
DA:335,1
DA:336,1
DA:337,1
DA:338,1
DA:339,1
DA:340,1
DA:341,1
DA:342,1
DA:344,1
DA:345,1
DA:346,1
DA:347,1
DA:348,1
DA:349,1
DA:350,1
DA:351,1
DA:352,1
DA:353,1
DA:354,1
DA:355,1
DA:359,1
DA:360,1
DA:361,1
DA:364,1
DA:365,1
DA:366,1
DA:367,1
DA:368,1
DA:369,1
DA:371,1
DA:372,1
DA:373,1
DA:374,1
DA:375,1
DA:376,1
DA:377,1
DA:378,1
DA:379,1
DA:380,1
DA:381,1
DA:385,1
DA:386,1
DA:389,1
DA:390,1
DA:391,1
DA:392,1
DA:393,1
DA:394,1
DA:396,1
DA:397,1
DA:398,1
DA:399,1
DA:400,1
DA:401,1
DA:402,1
DA:403,1
DA:404,1
DA:405,1
DA:406,1
DA:407,1
DA:408,1
DA:409,1
DA:411,1
DA:412,1
DA:413,1
DA:414,1
DA:415,1
DA:416,1
DA:417,1
DA:418,1
DA:419,1
DA:420,1
DA:421,1
DA:422,1
DA:423,1
DA:424,1
DA:426,1
DA:427,1
DA:428,1
DA:429,1
DA:430,1
DA:431,1
DA:432,1
DA:433,1
DA:434,1
DA:435,1
DA:436,1
DA:437,1
DA:438,1
DA:439,1
DA:440,1
DA:443,1
DA:444,1
DA:445,1
DA:446,1
DA:447,1
DA:449,1
DA:450,1
DA:452,1
DA:453,1
DA:454,1
DA:455,1
DA:456,1
DA:457,1
DA:458,1
DA:459,1
DA:460,1
DA:461,1
DA:462,1
DA:466,1
DA:467,1
DA:470,1
DA:471,1
DA:472,1
DA:473,1
DA:474,1
DA:475,1
DA:477,1
DA:478,1
DA:479,1
DA:480,1
DA:481,1
DA:482,1
DA:483,1
DA:484,1
DA:485,1
DA:486,1
DA:487,1
DA:488,1
DA:489,1
DA:490,1
DA:492,1
DA:493,1
DA:494,1
DA:495,1
DA:496,1
DA:497,1
DA:498,1
DA:499,1
DA:500,1
DA:501,1
DA:502,1
DA:503,1
DA:504,1
DA:505,1
DA:507,1
DA:509,1
DA:510,1
DA:511,1
DA:512,1
DA:513,1
DA:514,1
DA:515,1
DA:516,1
DA:517,1
DA:518,1
DA:519,1
DA:523,1
DA:524,1
DA:527,1
DA:528,1
DA:529,1
DA:530,1
DA:531,1
DA:532,1
DA:534,1
DA:535,1
DA:537,1
DA:538,1
DA:539,1
DA:540,1
DA:541,1
DA:542,1
DA:543,1
DA:544,1
DA:545,1
DA:546,1
DA:547,1
DA:551,1
DA:552,1
DA:555,1
DA:556,1
DA:557,1
DA:558,1
DA:559,1
DA:560,1
DA:562,1
DA:563,1
DA:564,1
DA:565,1
DA:566,1
DA:567,1
DA:568,1
DA:569,1
DA:570,1
DA:571,1
DA:572,1
DA:573,1
DA:574,1
DA:576,1
DA:577,1
DA:578,1
DA:579,1
DA:580,1
DA:581,1
DA:582,1
DA:583,1
DA:584,1
DA:585,1
DA:586,1
DA:587,1
DA:588,1
DA:589,1
DA:591,1
DA:592,1
DA:593,1
DA:594,1
DA:595,1
DA:596,1
DA:597,1
DA:598,1
DA:599,1
DA:600,1
DA:601,1
DA:602,1
DA:603,1
DA:604,1
DA:605,1
DA:607,1
DA:608,1
DA:609,1
BRF:0
BRH:0
LF:475
LH:405
end_of_record
SF:/Users/ivan/projects/github/esp/orion-rust/crates/orion-core/src/game2048_renderer.rs
FN:461,_RNvNtNtCs20Ygd6RoaGo_10orion_core17game2048_renderer5tests10start_game
FN:482,_RNvNtNtCs20Ygd6RoaGo_10orion_core17game2048_renderer5testss_25render_playing_draws_grid
FN:639,_RNvNtNtCs20Ygd6RoaGo_10orion_core17game2048_renderer5testss_26grid_layout_varies_by_size
FN:470,_RNvNtNtCs20Ygd6RoaGo_10orion_core17game2048_renderer5testss_27render_choosing_draws_title
FN:614,_RNvNtNtCs20Ygd6RoaGo_10orion_core17game2048_renderer5testss_28tile_color_covers_all_values
FN:525,_RNvNtNtCs20Ygd6RoaGo_10orion_core17game2048_renderer5testss_30render_game_over_draws_overlay
FN:577,_RNvNtNtCs20Ygd6RoaGo_10orion_core17game2048_renderer5testss_31render_choosing_with_exit_field
FN:538,_RNvNtNtCs20Ygd6RoaGo_10orion_core17game2048_renderer5testss_35render_game_over_with_exit_selected
FN:586,_RNvNtNtCs20Ygd6RoaGo_10orion_core17game2048_renderer5testss_35render_move_delta_with_score_change
FN:631,_RNvNtNtCs20Ygd6RoaGo_10orion_core17game2048_renderer5testss_35tile_text_color_dark_for_low_values
FN:564,_RNvNtNtCs20Ygd6RoaGo_10orion_core17game2048_renderer5testss_36render_pause_menu_with_exit_selected
FN:600,_RNvNtNtCs20Ygd6RoaGo_10orion_core17game2048_renderer5testss_40render_move_delta_with_best_score_change
FN:551,_RNvNtNtCs20Ygd6RoaGo_10orion_core17game2048_renderer5testss_40render_pause_menu_with_continue_selected
FN:648,_RNvNtNtCs20Ygd6RoaGo_10orion_core17game2048_renderer5testss_41choose_aa_scale_returns_appropriate_scale
FN:493,_RNvNtNtCs20Ygd6RoaGo_10orion_core17game2048_renderer5testss_44render_move_delta_only_redraws_changed_cells
FN:164,_RINvNtCs20Ygd6RoaGo_10orion_core17game2048_renderer15render_choosingNtNtB4_6render16RecordingDisplayEB4_
FN:97,_RINvNtCs20Ygd6RoaGo_10orion_core17game2048_renderer16draw_single_tileNtNtB4_6render16RecordingDisplayEB4_
FN:307,_RINvNtCs20Ygd6RoaGo_10orion_core17game2048_renderer16render_all_tilesNtNtB4_6render16RecordingDisplayEB4_
FN:142,_RINvNtCs20Ygd6RoaGo_10orion_core17game2048_renderer17render_move_deltaNtNtB4_6render16RecordingDisplayEB4_
FN:386,_RINvNtCs20Ygd6RoaGo_10orion_core17game2048_renderer17render_pause_menuNtNtB4_6render16RecordingDisplayEB4_
FN:211,_RINvNtCs20Ygd6RoaGo_10orion_core17game2048_renderer17render_score_areaNtNtB4_6render16RecordingDisplayEB4_
FN:237,_RINvNtCs20Ygd6RoaGo_10orion_core17game2048_renderer18render_score_deltaNtNtB4_6render16RecordingDisplayEB4_
FN:289,_RINvNtCs20Ygd6RoaGo_10orion_core17game2048_renderer22render_grid_backgroundNtNtB4_6render16RecordingDisplayEB4_
FN:318,_RINvNtCs20Ygd6RoaGo_10orion_core17game2048_renderer24render_game_over_overlayNtNtB4_6render16RecordingDisplayEB4_
FN:131,_RINvNtCs20Ygd6RoaGo_10orion_core17game2048_renderer6renderNtNtB4_6render16RecordingDisplayEB4_
FN:38,_RNvNtCs20Ygd6RoaGo_10orion_core17game2048_renderer10tile_color
FN:64,_RNvNtCs20Ygd6RoaGo_10orion_core17game2048_renderer11grid_layout
FN:82,_RNvNtCs20Ygd6RoaGo_10orion_core17game2048_renderer15choose_aa_scale
FN:56,_RNvNtCs20Ygd6RoaGo_10orion_core17game2048_renderer15tile_text_color
FNDA:2,_RNvNtNtCs20Ygd6RoaGo_10orion_core17game2048_renderer5tests10start_game
FNDA:1,_RNvNtNtCs20Ygd6RoaGo_10orion_core17game2048_renderer5testss_25render_playing_draws_grid
FNDA:1,_RNvNtNtCs20Ygd6RoaGo_10orion_core17game2048_renderer5testss_26grid_layout_varies_by_size
FNDA:1,_RNvNtNtCs20Ygd6RoaGo_10orion_core17game2048_renderer5testss_27render_choosing_draws_title
FNDA:1,_RNvNtNtCs20Ygd6RoaGo_10orion_core17game2048_renderer5testss_28tile_color_covers_all_values
FNDA:1,_RNvNtNtCs20Ygd6RoaGo_10orion_core17game2048_renderer5testss_30render_game_over_draws_overlay
FNDA:1,_RNvNtNtCs20Ygd6RoaGo_10orion_core17game2048_renderer5testss_31render_choosing_with_exit_field
FNDA:1,_RNvNtNtCs20Ygd6RoaGo_10orion_core17game2048_renderer5testss_35render_game_over_with_exit_selected
FNDA:1,_RNvNtNtCs20Ygd6RoaGo_10orion_core17game2048_renderer5testss_35render_move_delta_with_score_change
FNDA:1,_RNvNtNtCs20Ygd6RoaGo_10orion_core17game2048_renderer5testss_35tile_text_color_dark_for_low_values
FNDA:1,_RNvNtNtCs20Ygd6RoaGo_10orion_core17game2048_renderer5testss_36render_pause_menu_with_exit_selected
FNDA:1,_RNvNtNtCs20Ygd6RoaGo_10orion_core17game2048_renderer5testss_40render_move_delta_with_best_score_change
FNDA:1,_RNvNtNtCs20Ygd6RoaGo_10orion_core17game2048_renderer5testss_40render_pause_menu_with_continue_selected
FNDA:1,_RNvNtNtCs20Ygd6RoaGo_10orion_core17game2048_renderer5testss_41choose_aa_scale_returns_appropriate_scale
FNDA:1,_RNvNtNtCs20Ygd6RoaGo_10orion_core17game2048_renderer5testss_44render_move_delta_only_redraws_changed_cells
FNDA:2,_RINvNtCs20Ygd6RoaGo_10orion_core17game2048_renderer15render_choosingNtNtB4_6render16RecordingDisplayEB4_
FNDA:31,_RINvNtCs20Ygd6RoaGo_10orion_core17game2048_renderer16draw_single_tileNtNtB4_6render16RecordingDisplayEB4_
FNDA:4,_RINvNtCs20Ygd6RoaGo_10orion_core17game2048_renderer16render_all_tilesNtNtB4_6render16RecordingDisplayEB4_
FNDA:6,_RINvNtCs20Ygd6RoaGo_10orion_core17game2048_renderer17render_move_deltaNtNtB4_6render16RecordingDisplayEB4_
FNDA:2,_RINvNtCs20Ygd6RoaGo_10orion_core17game2048_renderer17render_pause_menuNtNtB4_6render16RecordingDisplayEB4_
FNDA:6,_RINvNtCs20Ygd6RoaGo_10orion_core17game2048_renderer17render_score_areaNtNtB4_6render16RecordingDisplayEB4_
FNDA:6,_RINvNtCs20Ygd6RoaGo_10orion_core17game2048_renderer18render_score_deltaNtNtB4_6render16RecordingDisplayEB4_
FNDA:4,_RINvNtCs20Ygd6RoaGo_10orion_core17game2048_renderer22render_grid_backgroundNtNtB4_6render16RecordingDisplayEB4_
FNDA:2,_RINvNtCs20Ygd6RoaGo_10orion_core17game2048_renderer24render_game_over_overlayNtNtB4_6render16RecordingDisplayEB4_
FNDA:4,_RINvNtCs20Ygd6RoaGo_10orion_core17game2048_renderer6renderNtNtB4_6render16RecordingDisplayEB4_
FNDA:67,_RNvNtCs20Ygd6RoaGo_10orion_core17game2048_renderer10tile_color
FNDA:40,_RNvNtCs20Ygd6RoaGo_10orion_core17game2048_renderer11grid_layout
FNDA:29,_RNvNtCs20Ygd6RoaGo_10orion_core17game2048_renderer15choose_aa_scale
FNDA:27,_RNvNtCs20Ygd6RoaGo_10orion_core17game2048_renderer15tile_text_color
FNF:29
FNH:29
DA:38,67
DA:39,67
DA:40,9
DA:41,45
DA:42,3
DA:43,1
DA:44,1
DA:45,1
DA:46,1
DA:47,1
DA:48,1
DA:49,1
DA:50,1
DA:51,1
DA:52,1
DA:54,67
DA:56,27
DA:57,27
DA:58,25
DA:60,2
DA:62,27
DA:64,40
DA:65,40
DA:66,40
DA:67,40
DA:69,40
DA:70,40
DA:71,40
DA:73,40
DA:74,40
DA:76,40
DA:77,40
DA:79,40
DA:80,40
DA:82,29
DA:83,29
DA:84,1
DA:85,28
DA:86,28
DA:87,28
DA:88,34
DA:89,34
DA:90,34
DA:91,27
DA:92,7
DA:94,1
DA:95,29
DA:97,31
DA:98,31
DA:99,31
DA:101,31
DA:102,31
DA:103,31
DA:105,31
DA:107,31
DA:108,23
DA:109,23
DA:110,23
DA:111,23
DA:112,23
DA:113,23
DA:114,23
DA:115,23
DA:116,23
DA:117,23
DA:118,23
DA:119,23
DA:120,23
DA:121,23
DA:122,23
DA:123,23
DA:124,23
DA:125,23
DA:126,0
DA:127,0
DA:128,8
DA:129,31
DA:131,4
DA:132,4
DA:133,4
DA:134,4
DA:135,4
DA:136,4
DA:137,2
DA:138,2
DA:139,4
DA:140,4
DA:142,6
DA:143,6
DA:144,6
DA:145,6
DA:146,6
DA:147,6
DA:148,6
DA:149,6
DA:151,6
DA:152,24
DA:153,96
DA:154,96
DA:155,96
DA:156,22
DA:157,74
DA:161,6
DA:162,6
DA:164,2
DA:165,2
DA:167,2
DA:169,2
DA:170,2
DA:174,2
DA:175,2
DA:176,2
DA:179,2
DA:180,2
DA:181,2
DA:182,2
DA:186,2
DA:191,2
DA:192,2
DA:196,2
DA:197,2
DA:198,2
DA:201,2
DA:202,1
DA:203,1
DA:204,1
DA:205,1
DA:206,1
DA:208,2
DA:209,2
DA:211,6
DA:212,6
DA:214,6
DA:215,6
DA:216,6
DA:217,6
DA:220,6
DA:225,6
DA:226,6
DA:227,6
DA:228,6
DA:231,6
DA:235,6
DA:237,6
DA:238,6
DA:239,6
DA:240,6
DA:241,6
DA:242,6
DA:243,6
DA:244,6
DA:246,6
DA:247,1
DA:248,1
DA:249,1
DA:250,1
DA:251,1
DA:252,1
DA:253,1
DA:254,1
DA:255,1
DA:256,1
DA:257,1
DA:258,1
DA:259,1
DA:260,1
DA:261,1
DA:262,1
DA:263,1
DA:264,1
DA:265,5
DA:267,6
DA:268,0
DA:269,0
DA:270,0
DA:271,0
DA:272,0
DA:273,0
DA:274,0
DA:275,0
DA:276,0
DA:277,0
DA:278,0
DA:279,0
DA:280,0
DA:281,0
DA:282,0
DA:283,0
DA:284,0
DA:285,0
DA:286,6
DA:287,6
DA:289,4
DA:290,4
DA:291,4
DA:292,4
DA:294,4
DA:295,4
DA:296,4
DA:298,16
DA:299,64
DA:300,64
DA:301,64
DA:302,64
DA:303,64
DA:305,4
DA:307,4
DA:308,4
DA:309,16
DA:310,64
DA:311,64
DA:312,9
DA:313,55
DA:316,4
DA:318,2
DA:319,2
DA:320,2
DA:321,2
DA:322,2
DA:324,2
DA:326,2
DA:328,2
DA:330,2
DA:331,2
DA:332,2
DA:333,2
DA:334,2
DA:335,2
DA:336,2
DA:337,2
DA:342,2
DA:343,2
DA:344,2
DA:345,2
DA:346,2
DA:347,2
DA:348,2
DA:350,2
DA:352,2
DA:353,1
DA:354,1
DA:355,2
DA:356,2
DA:357,2
DA:358,2
DA:359,2
DA:360,2
DA:364,2
DA:365,2
DA:366,2
DA:367,2
DA:368,2
DA:369,2
DA:371,2
DA:373,2
DA:374,1
DA:375,1
DA:376,2
DA:377,2
DA:378,2
DA:379,2
DA:380,2
DA:381,2
DA:384,2
DA:386,2
DA:387,2
DA:388,2
DA:390,2
DA:391,2
DA:393,2
DA:394,2
DA:395,2
DA:397,2
DA:399,2
DA:400,2
DA:401,1
DA:403,1
DA:406,2
DA:407,1
DA:408,1
DA:409,2
DA:410,2
DA:412,2
DA:413,2
DA:414,2
DA:415,1
DA:417,1
DA:422,2
DA:423,2
DA:424,2
DA:426,2
DA:428,2
DA:429,2
DA:430,1
DA:432,1
DA:435,2
DA:436,1
DA:437,1
DA:438,2
DA:439,2
DA:441,2
DA:442,2
DA:443,2
DA:444,1
DA:446,1
DA:451,2
DA:452,2
DA:461,2
DA:462,2
DA:463,2
DA:464,2
DA:465,2
DA:466,2
DA:467,2
DA:470,1
DA:471,1
DA:472,1
DA:473,1
DA:474,1
DA:475,1
DA:476,1
DA:479,1
DA:482,1
DA:483,1
DA:484,1
DA:485,1
DA:486,1
DA:487,1
DA:488,1
DA:489,1
DA:490,1
DA:493,1
DA:494,1
DA:495,1
DA:496,1
DA:497,1
DA:499,1
DA:500,1
DA:501,1
DA:503,1
DA:504,1
DA:505,1
DA:507,1
DA:508,1
DA:510,1
DA:511,1
DA:512,1
DA:516,1
DA:517,1
DA:518,1
DA:519,1
DA:521,1
DA:522,1
DA:525,1
DA:526,1
DA:527,1
DA:528,1
DA:529,1
DA:530,1
DA:531,1
DA:532,1
DA:533,1
DA:534,1
DA:535,1
DA:538,1
DA:539,1
DA:540,1
DA:541,1
DA:542,1
DA:543,1
DA:544,1
DA:545,1
DA:546,1
DA:547,1
DA:548,1
DA:551,1
DA:552,1
DA:553,1
DA:554,1
DA:555,1
DA:556,1
DA:557,1
DA:558,1
DA:561,1
DA:564,1
DA:565,1
DA:566,1
DA:567,1
DA:568,1
DA:569,1
DA:570,1
DA:571,1
DA:574,1
DA:577,1
DA:578,1
DA:579,1
DA:580,1
DA:581,1
DA:582,1
DA:583,1
DA:586,1
DA:587,1
DA:588,1
DA:589,1
DA:590,1
DA:591,1
DA:592,1
DA:594,1
DA:595,1
DA:596,1
DA:597,1
DA:600,1
DA:601,1
DA:602,1
DA:603,1
DA:604,1
DA:605,1
DA:606,1
DA:608,1
DA:609,1
DA:610,1
DA:611,1
DA:614,1
DA:615,1
DA:616,1
DA:617,1
DA:618,1
DA:619,1
DA:620,1
DA:621,1
DA:622,1
DA:623,1
DA:624,1
DA:625,1
DA:626,1
DA:627,1
DA:628,1
DA:631,1
DA:632,1
DA:633,1
DA:634,1
DA:635,1
DA:636,1
DA:639,1
DA:640,1
DA:641,1
DA:642,1
DA:643,1
DA:644,1
DA:645,1
DA:648,1
DA:649,1
DA:650,1
DA:651,1
DA:652,1
DA:653,1
DA:654,1
DA:655,1
BRF:0
BRH:0
LF:458
LH:438
end_of_record
SF:/Users/ivan/projects/github/esp/orion-rust/crates/orion-core/src/input.rs
FN:42,_RNvMNtCs20Ygd6RoaGo_10orion_core5inputNtB2_15DebouncedButton3new
FN:52,_RNvMNtCs20Ygd6RoaGo_10orion_core5inputNtB2_15DebouncedButton4poll
FN:142,_RNvMs0_NtCs20Ygd6RoaGo_10orion_core5inputNtB5_14EncoderDecoder3new
FN:149,_RNvMs0_NtCs20Ygd6RoaGo_10orion_core5inputNtB5_14EncoderDecoder4poll
FN:96,_RNvNtCs20Ygd6RoaGo_10orion_core5input18joystick_direction
FN:225,_RNCNvNtNtCs20Ygd6RoaGo_10orion_core5input5testss_32encoder_counts_quadrature_detent0B7_
FN:81,_RNvMNtCs20Ygd6RoaGo_10orion_core5inputNtB2_15DebouncedButton5reset
FN:91,_RNvXs_NtCs20Ygd6RoaGo_10orion_core5inputNtB4_15DebouncedButtonNtNtCs6sq8b9ugfBC_4core7default7Default7default
FN:220,_RNvNtNtCs20Ygd6RoaGo_10orion_core5input5testss_32encoder_counts_quadrature_detent
FN:179,_RNvNtNtCs20Ygd6RoaGo_10orion_core5input5testss_41joystick_uses_dominant_axis_and_threshold
FN:199,_RNvNtNtCs20Ygd6RoaGo_10orion_core5input5testss_50button_debounces_press_and_reports_long_press_once
FNDA:1,_RNvMNtCs20Ygd6RoaGo_10orion_core5inputNtB2_15DebouncedButton3new
FNDA:4,_RNvMNtCs20Ygd6RoaGo_10orion_core5inputNtB2_15DebouncedButton4poll
FNDA:1,_RNvMs0_NtCs20Ygd6RoaGo_10orion_core5inputNtB5_14EncoderDecoder3new
FNDA:4,_RNvMs0_NtCs20Ygd6RoaGo_10orion_core5inputNtB5_14EncoderDecoder4poll
FNDA:4,_RNvNtCs20Ygd6RoaGo_10orion_core5input18joystick_direction
FNDA:4,_RNCNvNtNtCs20Ygd6RoaGo_10orion_core5input5testss_32encoder_counts_quadrature_detent0B7_
FNDA:0,_RNvMNtCs20Ygd6RoaGo_10orion_core5inputNtB2_15DebouncedButton5reset
FNDA:0,_RNvXs_NtCs20Ygd6RoaGo_10orion_core5inputNtB4_15DebouncedButtonNtNtCs6sq8b9ugfBC_4core7default7Default7default
FNDA:1,_RNvNtNtCs20Ygd6RoaGo_10orion_core5input5testss_32encoder_counts_quadrature_detent
FNDA:1,_RNvNtNtCs20Ygd6RoaGo_10orion_core5input5testss_41joystick_uses_dominant_axis_and_threshold
FNDA:1,_RNvNtNtCs20Ygd6RoaGo_10orion_core5input5testss_50button_debounces_press_and_reports_long_press_once
FNF:11
FNH:9
DA:42,1
DA:43,1
DA:44,1
DA:45,1
DA:46,1
DA:47,1
DA:48,1
DA:49,1
DA:50,1
DA:52,4
DA:53,4
DA:54,1
DA:55,1
DA:56,3
DA:58,4
DA:59,4
DA:60,3
DA:62,1
DA:63,1
DA:64,1
DA:65,1
DA:66,1
DA:67,1
DA:68,3
DA:70,4
DA:71,3
DA:72,2
DA:73,1
DA:74,1
DA:75,1
DA:76,3
DA:78,4
DA:79,4
DA:81,0
DA:82,0
DA:83,0
DA:84,0
DA:85,0
DA:86,0
DA:87,0
DA:91,0
DA:92,0
DA:93,0
DA:96,4
DA:97,4
DA:98,4
DA:99,4
DA:100,4
DA:101,4
DA:102,4
DA:103,4
DA:104,4
DA:105,4
DA:106,4
DA:107,1
DA:108,3
DA:109,4
DA:110,0
DA:111,4
DA:113,4
DA:114,4
DA:115,4
DA:116,1
DA:117,3
DA:118,3
DA:119,2
DA:120,1
DA:122,1
DA:124,1
DA:125,1
DA:126,1
DA:128,0
DA:131,0
DA:133,4
DA:142,1
DA:143,1
DA:144,1
DA:145,1
DA:146,1
DA:147,1
DA:149,4
DA:151,4
DA:152,4
DA:153,0
DA:154,4
DA:155,4
DA:156,4
DA:157,4
DA:158,4
DA:159,4
DA:160,0
DA:161,0
DA:162,4
DA:163,1
DA:164,1
DA:165,3
DA:166,0
DA:167,0
DA:168,0
DA:169,4
DA:170,4
DA:171,4
DA:179,1
DA:180,1
DA:181,1
DA:184,1
DA:185,1
DA:188,1
DA:189,1
DA:192,1
DA:193,1
DA:196,1
DA:199,1
DA:200,1
DA:201,1
DA:202,1
DA:203,1
DA:209,1
DA:210,1
DA:216,1
DA:217,1
DA:220,1
DA:221,1
DA:222,1
DA:223,1
DA:224,1
DA:225,4
DA:226,1
DA:227,1
DA:228,1
BRF:0
BRH:0
LF:131
LH:112
end_of_record
SF:/Users/ivan/projects/github/esp/orion-rust/crates/orion-core/src/launcher.rs
FN:201,_RNvMs3_NtCs20Ygd6RoaGo_10orion_core8launcherINtB5_8LauncherKj2_E10move_rightB7_
FN:223,_RNvMs3_NtCs20Ygd6RoaGo_10orion_core8launcherINtB5_8LauncherKj2_E14selected_titleB7_
FN:97,_RNvMs3_NtCs20Ygd6RoaGo_10orion_core8launcherINtB5_8LauncherKj2_E3newB7_
FN:227,_RNvMs3_NtCs20Ygd6RoaGo_10orion_core8launcherINtB5_8LauncherKj2_E4viewB7_
FN:215,_RNvMs3_NtCs20Ygd6RoaGo_10orion_core8launcherINtB5_8LauncherKj2_E5cycleB7_
FN:107,_RNvMs3_NtCs20Ygd6RoaGo_10orion_core8launcherINtB5_8LauncherKj2_E6updateB7_
FN:170,_RNvMs3_NtCs20Ygd6RoaGo_10orion_core8launcherINtB5_8LauncherKj2_E7move_upB7_
FN:180,_RNvMs3_NtCs20Ygd6RoaGo_10orion_core8launcherINtB5_8LauncherKj2_E9move_downB7_
FN:190,_RNvMs3_NtCs20Ygd6RoaGo_10orion_core8launcherINtB5_8LauncherKj2_E9move_leftB7_
FN:201,_RNvMs3_NtCs20Ygd6RoaGo_10orion_core8launcherINtB5_8LauncherKj3_E10move_rightB7_
FN:219,_RNvMs3_NtCs20Ygd6RoaGo_10orion_core8launcherINtB5_8LauncherKj3_E14selected_indexB7_
FN:97,_RNvMs3_NtCs20Ygd6RoaGo_10orion_core8launcherINtB5_8LauncherKj3_E3newB7_
FN:227,_RNvMs3_NtCs20Ygd6RoaGo_10orion_core8launcherINtB5_8LauncherKj3_E4viewB7_
FN:215,_RNvMs3_NtCs20Ygd6RoaGo_10orion_core8launcherINtB5_8LauncherKj3_E5cycleB7_
FN:107,_RNvMs3_NtCs20Ygd6RoaGo_10orion_core8launcherINtB5_8LauncherKj3_E6updateB7_
FN:170,_RNvMs3_NtCs20Ygd6RoaGo_10orion_core8launcherINtB5_8LauncherKj3_E7move_upB7_
FN:180,_RNvMs3_NtCs20Ygd6RoaGo_10orion_core8launcherINtB5_8LauncherKj3_E9move_downB7_
FN:190,_RNvMs3_NtCs20Ygd6RoaGo_10orion_core8launcherINtB5_8LauncherKj3_E9move_leftB7_
FN:201,_RNvMs3_NtCs20Ygd6RoaGo_10orion_core8launcherINtB5_8LauncherKj4_E10move_rightB7_
FN:97,_RNvMs3_NtCs20Ygd6RoaGo_10orion_core8launcherINtB5_8LauncherKj4_E3newB7_
FN:215,_RNvMs3_NtCs20Ygd6RoaGo_10orion_core8launcherINtB5_8LauncherKj4_E5cycleB7_
FN:107,_RNvMs3_NtCs20Ygd6RoaGo_10orion_core8launcherINtB5_8LauncherKj4_E6updateB7_
FN:170,_RNvMs3_NtCs20Ygd6RoaGo_10orion_core8launcherINtB5_8LauncherKj4_E7move_upB7_
FN:180,_RNvMs3_NtCs20Ygd6RoaGo_10orion_core8launcherINtB5_8LauncherKj4_E9move_downB7_
FN:190,_RNvMs3_NtCs20Ygd6RoaGo_10orion_core8launcherINtB5_8LauncherKj4_E9move_leftB7_
FN:201,_RNvMs3_NtCs20Ygd6RoaGo_10orion_core8launcherINtB5_8LauncherKj5_E10move_rightB7_
FN:219,_RNvMs3_NtCs20Ygd6RoaGo_10orion_core8launcherINtB5_8LauncherKj5_E14selected_indexB7_
FN:97,_RNvMs3_NtCs20Ygd6RoaGo_10orion_core8launcherINtB5_8LauncherKj5_E3newB7_
FN:215,_RNvMs3_NtCs20Ygd6RoaGo_10orion_core8launcherINtB5_8LauncherKj5_E5cycleB7_
FN:107,_RNvMs3_NtCs20Ygd6RoaGo_10orion_core8launcherINtB5_8LauncherKj5_E6updateB7_
FN:170,_RNvMs3_NtCs20Ygd6RoaGo_10orion_core8launcherINtB5_8LauncherKj5_E7move_upB7_
FN:180,_RNvMs3_NtCs20Ygd6RoaGo_10orion_core8launcherINtB5_8LauncherKj5_E9move_downB7_
FN:190,_RNvMs3_NtCs20Ygd6RoaGo_10orion_core8launcherINtB5_8LauncherKj5_E9move_leftB7_
FN:25,_RNvMNtCs20Ygd6RoaGo_10orion_core8launcherNtB2_9ClockTime3new
FN:52,_RNvMs0_NtCs20Ygd6RoaGo_10orion_core8launcherNtB5_10HomeStatus5label
FN:71,_RNvMs1_NtCs20Ygd6RoaGo_10orion_core8launcherNtB5_12HomeSnapshot12placeholders
FN:38,_RNvMs_NtCs20Ygd6RoaGo_10orion_core8launcherNtB4_12CalendarDate3new
FN:240,_RNvNtCs20Ygd6RoaGo_10orion_core8launcher13column_bottom
FN:82,_RNvXs2_NtCs20Ygd6RoaGo_10orion_core8launcherNtB5_12HomeSnapshotNtNtCs6sq8b9ugfBC_4core7default7Default7default
FN:351,_RNvNtNtCs20Ygd6RoaGo_10orion_core8launcher5testss_23game_item_returns_enter
FN:323,_RNvNtNtCs20Ygd6RoaGo_10orion_core8launcher5testss_25home_item_returns_go_home
FN:508,_RNvNtNtCs20Ygd6RoaGo_10orion_core8launcher5testss_26move_down_goes_same_column
FN:279,_RNvNtNtCs20Ygd6RoaGo_10orion_core8launcher5testss_26switch_enters_selected_app
FN:532,_RNvNtNtCs20Ygd6RoaGo_10orion_core8launcher5testss_27column_bottom_for_odd_count
FN:516,_RNvNtNtCs20Ygd6RoaGo_10orion_core8launcher5testss_27move_up_wraps_within_column
FN:538,_RNvNtNtCs20Ygd6RoaGo_10orion_core8launcher5testss_28column_bottom_for_even_count
FN:253,_RNvNtNtCs20Ygd6RoaGo_10orion_core8launcher5testss_28wraps_selection_with_encoder
FN:524,_RNvNtNtCs20Ygd6RoaGo_10orion_core8launcher5testss_29move_down_wraps_within_column
FN:429,_RNvNtNtCs20Ygd6RoaGo_10orion_core8launcher5testss_30move_right_goes_to_next_column
FN:306,_RNvNtNtCs20Ygd6RoaGo_10orion_core8launcher5testss_30switch_on_home_opens_game_menu
FN:492,_RNvNtNtCs20Ygd6RoaGo_10orion_core8launcher5testss_40move_left_clamps_on_odd_count_empty_cell
FN:403,_RNvNtNtCs20Ygd6RoaGo_10orion_core8launcher5testss_41long_press_encoder_switch_returns_go_home
FN:500,_RNvNtNtCs20Ygd6RoaGo_10orion_core8launcher5testss_41move_right_clamps_on_odd_count_empty_cell
FN:377,_RNvNtNtCs20Ygd6RoaGo_10orion_core8launcher5testss_42long_press_joystick_switch_returns_go_home
FN:474,_RNvNtNtCs20Ygd6RoaGo_10orion_core8launcher5testss_42move_left_wraps_from_leftmost_to_rightmost
FN:446,_RNvNtNtCs20Ygd6RoaGo_10orion_core8launcher5testss_43move_right_wraps_from_rightmost_to_leftmost
FN:235,_RNvMs3_NtCs20Ygd6RoaGo_10orion_core8launcherINtB5_8LauncherKpE14show_game_menuB7_
FN:231,_RNvMs3_NtCs20Ygd6RoaGo_10orion_core8launcherINtB5_8LauncherKpE9show_homeB7_
FNDA:0,_RNvMs3_NtCs20Ygd6RoaGo_10orion_core8launcherINtB5_8LauncherKj2_E10move_rightB7_
FNDA:1,_RNvMs3_NtCs20Ygd6RoaGo_10orion_core8launcherINtB5_8LauncherKj2_E14selected_titleB7_
FNDA:2,_RNvMs3_NtCs20Ygd6RoaGo_10orion_core8launcherINtB5_8LauncherKj2_E3newB7_
FNDA:1,_RNvMs3_NtCs20Ygd6RoaGo_10orion_core8launcherINtB5_8LauncherKj2_E4viewB7_
FNDA:1,_RNvMs3_NtCs20Ygd6RoaGo_10orion_core8launcherINtB5_8LauncherKj2_E5cycleB7_
FNDA:3,_RNvMs3_NtCs20Ygd6RoaGo_10orion_core8launcherINtB5_8LauncherKj2_E6updateB7_
FNDA:0,_RNvMs3_NtCs20Ygd6RoaGo_10orion_core8launcherINtB5_8LauncherKj2_E7move_upB7_
FNDA:0,_RNvMs3_NtCs20Ygd6RoaGo_10orion_core8launcherINtB5_8LauncherKj2_E9move_downB7_
FNDA:0,_RNvMs3_NtCs20Ygd6RoaGo_10orion_core8launcherINtB5_8LauncherKj2_E9move_leftB7_
FNDA:1,_RNvMs3_NtCs20Ygd6RoaGo_10orion_core8launcherINtB5_8LauncherKj3_E10move_rightB7_
FNDA:2,_RNvMs3_NtCs20Ygd6RoaGo_10orion_core8launcherINtB5_8LauncherKj3_E14selected_indexB7_
FNDA:4,_RNvMs3_NtCs20Ygd6RoaGo_10orion_core8launcherINtB5_8LauncherKj3_E3newB7_
FNDA:1,_RNvMs3_NtCs20Ygd6RoaGo_10orion_core8launcherINtB5_8LauncherKj3_E4viewB7_
FNDA:1,_RNvMs3_NtCs20Ygd6RoaGo_10orion_core8launcherINtB5_8LauncherKj3_E5cycleB7_
FNDA:4,_RNvMs3_NtCs20Ygd6RoaGo_10orion_core8launcherINtB5_8LauncherKj3_E6updateB7_
FNDA:0,_RNvMs3_NtCs20Ygd6RoaGo_10orion_core8launcherINtB5_8LauncherKj3_E7move_upB7_
FNDA:0,_RNvMs3_NtCs20Ygd6RoaGo_10orion_core8launcherINtB5_8LauncherKj3_E9move_downB7_
FNDA:1,_RNvMs3_NtCs20Ygd6RoaGo_10orion_core8launcherINtB5_8LauncherKj3_E9move_leftB7_
FNDA:0,_RNvMs3_NtCs20Ygd6RoaGo_10orion_core8launcherINtB5_8LauncherKj4_E10move_rightB7_
FNDA:1,_RNvMs3_NtCs20Ygd6RoaGo_10orion_core8launcherINtB5_8LauncherKj4_E3newB7_
FNDA:1,_RNvMs3_NtCs20Ygd6RoaGo_10orion_core8launcherINtB5_8LauncherKj4_E5cycleB7_
FNDA:2,_RNvMs3_NtCs20Ygd6RoaGo_10orion_core8launcherINtB5_8LauncherKj4_E6updateB7_
FNDA:0,_RNvMs3_NtCs20Ygd6RoaGo_10orion_core8launcherINtB5_8LauncherKj4_E7move_upB7_
FNDA:0,_RNvMs3_NtCs20Ygd6RoaGo_10orion_core8launcherINtB5_8LauncherKj4_E9move_downB7_
FNDA:0,_RNvMs3_NtCs20Ygd6RoaGo_10orion_core8launcherINtB5_8LauncherKj4_E9move_leftB7_
FNDA:2,_RNvMs3_NtCs20Ygd6RoaGo_10orion_core8launcherINtB5_8LauncherKj5_E10move_rightB7_
FNDA:6,_RNvMs3_NtCs20Ygd6RoaGo_10orion_core8launcherINtB5_8LauncherKj5_E14selected_indexB7_
FNDA:8,_RNvMs3_NtCs20Ygd6RoaGo_10orion_core8launcherINtB5_8LauncherKj5_E3newB7_
FNDA:0,_RNvMs3_NtCs20Ygd6RoaGo_10orion_core8launcherINtB5_8LauncherKj5_E5cycleB7_
FNDA:8,_RNvMs3_NtCs20Ygd6RoaGo_10orion_core8launcherINtB5_8LauncherKj5_E6updateB7_
FNDA:1,_RNvMs3_NtCs20Ygd6RoaGo_10orion_core8launcherINtB5_8LauncherKj5_E7move_upB7_
FNDA:2,_RNvMs3_NtCs20Ygd6RoaGo_10orion_core8launcherINtB5_8LauncherKj5_E9move_downB7_
FNDA:1,_RNvMs3_NtCs20Ygd6RoaGo_10orion_core8launcherINtB5_8LauncherKj5_E9move_leftB7_
FNDA:2,_RNvMNtCs20Ygd6RoaGo_10orion_core8launcherNtB2_9ClockTime3new
FNDA:5,_RNvMs0_NtCs20Ygd6RoaGo_10orion_core8launcherNtB5_10HomeStatus5label
FNDA:3,_RNvMs1_NtCs20Ygd6RoaGo_10orion_core8launcherNtB5_12HomeSnapshot12placeholders
FNDA:2,_RNvMs_NtCs20Ygd6RoaGo_10orion_core8launcherNtB4_12CalendarDate3new
FNDA:7,_RNvNtCs20Ygd6RoaGo_10orion_core8launcher13column_bottom
FNDA:3,_RNvXs2_NtCs20Ygd6RoaGo_10orion_core8launcherNtB5_12HomeSnapshotNtNtCs6sq8b9ugfBC_4core7default7Default7default
FNDA:1,_RNvNtNtCs20Ygd6RoaGo_10orion_core8launcher5testss_23game_item_returns_enter
FNDA:1,_RNvNtNtCs20Ygd6RoaGo_10orion_core8launcher5testss_25home_item_returns_go_home
FNDA:1,_RNvNtNtCs20Ygd6RoaGo_10orion_core8launcher5testss_26move_down_goes_same_column
FNDA:1,_RNvNtNtCs20Ygd6RoaGo_10orion_core8launcher5testss_26switch_enters_selected_app
FNDA:1,_RNvNtNtCs20Ygd6RoaGo_10orion_core8launcher5testss_27column_bottom_for_odd_count
FNDA:1,_RNvNtNtCs20Ygd6RoaGo_10orion_core8launcher5testss_27move_up_wraps_within_column
FNDA:1,_RNvNtNtCs20Ygd6RoaGo_10orion_core8launcher5testss_28column_bottom_for_even_count
FNDA:1,_RNvNtNtCs20Ygd6RoaGo_10orion_core8launcher5testss_28wraps_selection_with_encoder
FNDA:1,_RNvNtNtCs20Ygd6RoaGo_10orion_core8launcher5testss_29move_down_wraps_within_column
FNDA:1,_RNvNtNtCs20Ygd6RoaGo_10orion_core8launcher5testss_30move_right_goes_to_next_column
FNDA:1,_RNvNtNtCs20Ygd6RoaGo_10orion_core8launcher5testss_30switch_on_home_opens_game_menu
FNDA:1,_RNvNtNtCs20Ygd6RoaGo_10orion_core8launcher5testss_40move_left_clamps_on_odd_count_empty_cell
FNDA:1,_RNvNtNtCs20Ygd6RoaGo_10orion_core8launcher5testss_41long_press_encoder_switch_returns_go_home
FNDA:1,_RNvNtNtCs20Ygd6RoaGo_10orion_core8launcher5testss_41move_right_clamps_on_odd_count_empty_cell
FNDA:1,_RNvNtNtCs20Ygd6RoaGo_10orion_core8launcher5testss_42long_press_joystick_switch_returns_go_home
FNDA:1,_RNvNtNtCs20Ygd6RoaGo_10orion_core8launcher5testss_42move_left_wraps_from_leftmost_to_rightmost
FNDA:1,_RNvNtNtCs20Ygd6RoaGo_10orion_core8launcher5testss_43move_right_wraps_from_rightmost_to_leftmost
FNDA:0,_RNvMs3_NtCs20Ygd6RoaGo_10orion_core8launcherINtB5_8LauncherKpE14show_game_menuB7_
FNDA:0,_RNvMs3_NtCs20Ygd6RoaGo_10orion_core8launcherINtB5_8LauncherKpE9show_homeB7_
FNF:35
FNH:33
DA:25,2
DA:26,2
DA:27,2
DA:38,2
DA:39,2
DA:40,2
DA:52,5
DA:53,5
DA:54,2
DA:55,3
DA:56,0
DA:57,0
DA:59,5
DA:71,3
DA:72,3
DA:73,3
DA:74,3
DA:75,3
DA:76,3
DA:77,3
DA:78,3
DA:82,3
DA:83,3
DA:84,3
DA:97,15
DA:98,15
DA:99,15
DA:100,15
DA:101,15
DA:102,15
DA:103,15
DA:104,15
DA:105,15
DA:107,17
DA:108,17
DA:109,10
DA:110,10
DA:111,10
DA:112,0
DA:113,0
DA:114,7
DA:116,7
DA:117,2
DA:118,2
DA:119,5
DA:121,5
DA:122,3
DA:123,1
DA:124,1
DA:125,2
DA:126,2
DA:127,2
DA:129,2
DA:130,2
DA:131,1
DA:132,1
DA:133,1
DA:135,2
DA:136,1
DA:138,1
DA:139,0
DA:140,0
DA:141,0
DA:142,0
DA:143,0
DA:144,0
DA:145,0
DA:146,0
DA:147,0
DA:148,0
DA:149,0
DA:150,0
DA:151,0
DA:152,0
DA:153,0
DA:154,1
DA:155,1
DA:156,1
DA:157,1
DA:158,1
DA:159,0
DA:161,1
DA:163,2
DA:164,2
DA:166,0
DA:168,17
DA:170,1
DA:171,1
DA:172,1
DA:173,0
DA:174,1
DA:175,1
DA:176,1
DA:177,1
DA:178,1
DA:180,2
DA:181,2
DA:182,2
DA:183,2
DA:184,1
DA:185,1
DA:186,1
DA:187,1
DA:188,2
DA:190,2
DA:191,2
DA:192,2
DA:193,2
DA:194,1
DA:195,1
DA:196,0
DA:197,0
DA:198,0
DA:199,2
DA:201,3
DA:202,3
DA:203,1
DA:204,1
DA:205,1
DA:206,1
DA:208,2
DA:209,2
DA:210,1
DA:211,1
DA:213,3
DA:215,3
DA:216,3
DA:217,3
DA:219,8
DA:220,8
DA:221,8
DA:223,1
DA:224,1
DA:225,1
DA:227,2
DA:228,2
DA:229,2
DA:231,0
DA:232,0
DA:233,0
DA:235,0
DA:236,0
DA:237,0
DA:240,7
DA:241,7
DA:242,7
DA:243,7
DA:244,7
DA:245,7
DA:253,1
DA:254,1
DA:255,1
DA:256,1
DA:257,1
DA:258,1
DA:259,1
DA:260,1
DA:261,1
DA:262,1
DA:265,1
DA:266,1
DA:267,1
DA:268,1
DA:269,1
DA:270,1
DA:271,1
DA:272,1
DA:275,1
DA:276,1
DA:279,1
DA:280,1
DA:281,1
DA:282,1
DA:283,1
DA:284,1
DA:285,1
DA:286,1
DA:287,1
DA:288,1
DA:291,1
DA:292,1
DA:293,1
DA:294,1
DA:295,1
DA:296,1
DA:297,1
DA:298,1
DA:299,1
DA:302,1
DA:303,1
DA:306,1
DA:307,1
DA:308,1
DA:309,1
DA:310,1
DA:311,1
DA:312,1
DA:313,1
DA:314,1
DA:315,1
DA:318,1
DA:319,1
DA:320,1
DA:323,1
DA:324,1
DA:325,1
DA:326,1
DA:327,1
DA:328,1
DA:329,1
DA:330,1
DA:331,1
DA:332,1
DA:335,1
DA:336,1
DA:337,1
DA:338,1
DA:339,1
DA:340,1
DA:341,1
DA:342,1
DA:343,1
DA:346,1
DA:347,1
DA:348,1
DA:351,1
DA:352,1
DA:353,1
DA:354,1
DA:355,1
DA:356,1
DA:357,1
DA:358,1
DA:359,1
DA:360,1
DA:363,1
DA:364,1
DA:365,1
DA:366,1
DA:367,1
DA:368,1
DA:369,1
DA:370,1
DA:373,1
DA:374,1
DA:377,1
DA:378,1
DA:379,1
DA:380,1
DA:381,1
DA:382,1
DA:383,1
DA:384,1
DA:385,1
DA:386,1
DA:389,1
DA:390,1
DA:391,1
DA:392,1
DA:393,1
DA:394,1
DA:395,1
DA:396,1
DA:399,1
DA:400,1
DA:403,1
DA:404,1
DA:405,1
DA:406,1
DA:407,1
DA:408,1
DA:409,1
DA:410,1
DA:411,1
DA:412,1
DA:415,1
DA:416,1
DA:417,1
DA:418,1
DA:419,1
DA:420,1
DA:421,1
DA:422,1
DA:425,1
DA:426,1
DA:429,1
DA:430,1
DA:431,1
DA:432,1
DA:433,1
DA:434,1
DA:435,1
DA:436,1
DA:437,1
DA:438,1
DA:441,1
DA:442,1
DA:443,1
DA:446,1
DA:447,1
DA:448,1
DA:449,1
DA:450,1
DA:451,1
DA:452,1
DA:453,1
DA:454,1
DA:455,1
DA:458,1
DA:459,1
DA:460,1
DA:461,1
DA:462,1
DA:463,1
DA:464,1
DA:465,1
DA:466,1
DA:467,1
DA:468,1
DA:469,1
DA:470,1
DA:471,1
DA:474,1
DA:475,1
DA:476,1
DA:477,1
DA:478,1
DA:479,1
DA:480,1
DA:481,1
DA:482,1
DA:483,1
DA:486,1
DA:487,1
DA:488,1
DA:489,1
DA:492,1
DA:493,1
DA:494,1
DA:495,1
DA:496,1
DA:497,1
DA:500,1
DA:501,1
DA:502,1
DA:503,1
DA:504,1
DA:505,1
DA:508,1
DA:509,1
DA:510,1
DA:511,1
DA:512,1
DA:513,1
DA:516,1
DA:517,1
DA:518,1
DA:519,1
DA:520,1
DA:521,1
DA:524,1
DA:525,1
DA:526,1
DA:527,1
DA:528,1
DA:529,1
DA:532,1
DA:533,1
DA:534,1
DA:535,1
DA:538,1
DA:539,1
DA:540,1
DA:541,1
BRF:0
BRH:0
LF:374
LH:335
end_of_record
SF:/Users/ivan/projects/github/esp/orion-rust/crates/orion-core/src/render.rs
FN:50,_RINvNtCs20Ygd6RoaGo_10orion_core6render11draw_bitmapNtB2_16RecordingDisplayEB4_
FN:182,_RINvNtCs20Ygd6RoaGo_10orion_core6render11draw_statusNtB2_16RecordingDisplayEB4_
FN:98,_RINvNtCs20Ygd6RoaGo_10orion_core6render11render_homeNtB2_16RecordingDisplayEB4_
FN:192,_RINvNtCs20Ygd6RoaGo_10orion_core6render14draw_game_iconNtB2_16RecordingDisplayEB4_
FN:85,_RINvNtCs20Ygd6RoaGo_10orion_core6render15render_launcherKj2_NtB2_16RecordingDisplayEB4_
FN:169,_RINvNtCs20Ygd6RoaGo_10orion_core6render16draw_temperatureNtB2_16RecordingDisplayEB4_
FN:139,_RINvNtCs20Ygd6RoaGo_10orion_core6render16render_game_menuKj2_NtB2_16RecordingDisplayEB4_
FN:139,_RINvNtCs20Ygd6RoaGo_10orion_core6render16render_game_menuKj5_NtB2_16RecordingDisplayEB4_
FN:46,_RINvNtCs20Ygd6RoaGo_10orion_core6render5clearNtB2_16RecordingDisplayEB4_
FN:54,_RINvNtCs20Ygd6RoaGo_10orion_core6render5flushINtNtB4_15tetris_renderer16RotatedClockwiseNtB2_16RecordingDisplayEEB4_
FN:54,_RINvNtCs20Ygd6RoaGo_10orion_core6render5flushNtB2_16RecordingDisplayEB4_
FN:36,_RINvNtCs20Ygd6RoaGo_10orion_core6render9fill_rectINtNtB4_15tetris_renderer16RotatedClockwiseNtB2_16RecordingDisplayEEB4_
FN:36,_RINvNtCs20Ygd6RoaGo_10orion_core6render9fill_rectNtB2_16RecordingDisplayEB4_
FN:64,_RNvMNtCs20Ygd6RoaGo_10orion_core6renderNtB2_16RecordingDisplay3new
FN:74,_RNvMNtCs20Ygd6RoaGo_10orion_core6renderNtB2_16RecordingDisplay5clear
FN:70,_RNvMNtCs20Ygd6RoaGo_10orion_core6renderNtB2_16RecordingDisplay8commands
FN:80,_RNvXs_NtCs20Ygd6RoaGo_10orion_core6renderNtB4_16RecordingDisplayNtB4_11DisplaySink4push
FN:274,_RNvNtNtCs20Ygd6RoaGo_10orion_core6render5testss_21render_home_with_time
FN:290,_RNvNtNtCs20Ygd6RoaGo_10orion_core6render5testss_24render_home_with_no_time
FN:383,_RNvNtNtCs20Ygd6RoaGo_10orion_core6render5testss_25clear_fills_entire_screen
FN:375,_RNvNtNtCs20Ygd6RoaGo_10orion_core6render5testss_26flush_pushes_flush_command
FN:394,_RNvNtNtCs20Ygd6RoaGo_10orion_core6render5testss_29recording_display_clear_works
FN:344,_RNvNtNtCs20Ygd6RoaGo_10orion_core6render5testss_31game_menu_icon_unselected_color
FN:322,_RNvNtNtCs20Ygd6RoaGo_10orion_core6render5testss_32render_game_menu_with_many_items
FN:367,_RNvNtNtCs20Ygd6RoaGo_10orion_core6render5testss_33draw_bitmap_pushes_bitmap_command
FN:332,_RNvNtNtCs20Ygd6RoaGo_10orion_core6render5testss_33game_menu_icons_cover_all_indices
FN:258,_RNvNtNtCs20Ygd6RoaGo_10orion_core6render5testss_34render_launcher_dispatches_to_home
FN:306,_RNvNtNtCs20Ygd6RoaGo_10orion_core6render5testss_37render_home_with_negative_temperature
FN:360,_RNvNtNtCs20Ygd6RoaGo_10orion_core6render5testss_39fill_rect_draws_for_positive_dimensions
FN:266,_RNvNtNtCs20Ygd6RoaGo_10orion_core6render5testss_39render_launcher_dispatches_to_game_menu
FN:234,_RNvNtNtCs20Ygd6RoaGo_10orion_core6render5testss_40home_renderer_records_full_screen_redraw
FN:351,_RNvNtNtCs20Ygd6RoaGo_10orion_core6render5testss_43fill_rect_skips_zero_or_negative_dimensions
FN:246,_RNvNtNtCs20Ygd6RoaGo_10orion_core6render5testss_45game_menu_renderer_records_full_screen_redraw
FNDA:5,_RINvNtCs20Ygd6RoaGo_10orion_core6render11draw_bitmapNtB2_16RecordingDisplayEB4_
FNDA:5,_RINvNtCs20Ygd6RoaGo_10orion_core6render11draw_statusNtB2_16RecordingDisplayEB4_
FNDA:5,_RINvNtCs20Ygd6RoaGo_10orion_core6render11render_homeNtB2_16RecordingDisplayEB4_
FNDA:16,_RINvNtCs20Ygd6RoaGo_10orion_core6render14draw_game_iconNtB2_16RecordingDisplayEB4_
FNDA:2,_RINvNtCs20Ygd6RoaGo_10orion_core6render15render_launcherKj2_NtB2_16RecordingDisplayEB4_
FNDA:5,_RINvNtCs20Ygd6RoaGo_10orion_core6render16draw_temperatureNtB2_16RecordingDisplayEB4_
FNDA:2,_RINvNtCs20Ygd6RoaGo_10orion_core6render16render_game_menuKj2_NtB2_16RecordingDisplayEB4_
FNDA:1,_RINvNtCs20Ygd6RoaGo_10orion_core6render16render_game_menuKj5_NtB2_16RecordingDisplayEB4_
FNDA:26,_RINvNtCs20Ygd6RoaGo_10orion_core6render5clearNtB2_16RecordingDisplayEB4_
FNDA:8,_RINvNtCs20Ygd6RoaGo_10orion_core6render5flushINtNtB4_15tetris_renderer16RotatedClockwiseNtB2_16RecordingDisplayEEB4_
FNDA:50,_RINvNtCs20Ygd6RoaGo_10orion_core6render5flushNtB2_16RecordingDisplayEB4_
FNDA:2945,_RINvNtCs20Ygd6RoaGo_10orion_core6render9fill_rectINtNtB4_15tetris_renderer16RotatedClockwiseNtB2_16RecordingDisplayEEB4_
FNDA:31077,_RINvNtCs20Ygd6RoaGo_10orion_core6render9fill_rectNtB2_16RecordingDisplayEB4_
FNDA:97,_RNvMNtCs20Ygd6RoaGo_10orion_core6renderNtB2_16RecordingDisplay3new
FNDA:9,_RNvMNtCs20Ygd6RoaGo_10orion_core6renderNtB2_16RecordingDisplay5clear
FNDA:99,_RNvMNtCs20Ygd6RoaGo_10orion_core6renderNtB2_16RecordingDisplay8commands
FNDA:34083,_RNvXs_NtCs20Ygd6RoaGo_10orion_core6renderNtB4_16RecordingDisplayNtB4_11DisplaySink4push
FNDA:1,_RNvNtNtCs20Ygd6RoaGo_10orion_core6render5testss_21render_home_with_time
FNDA:1,_RNvNtNtCs20Ygd6RoaGo_10orion_core6render5testss_24render_home_with_no_time
FNDA:1,_RNvNtNtCs20Ygd6RoaGo_10orion_core6render5testss_25clear_fills_entire_screen
FNDA:1,_RNvNtNtCs20Ygd6RoaGo_10orion_core6render5testss_26flush_pushes_flush_command
FNDA:1,_RNvNtNtCs20Ygd6RoaGo_10orion_core6render5testss_29recording_display_clear_works
FNDA:1,_RNvNtNtCs20Ygd6RoaGo_10orion_core6render5testss_31game_menu_icon_unselected_color
FNDA:1,_RNvNtNtCs20Ygd6RoaGo_10orion_core6render5testss_32render_game_menu_with_many_items
FNDA:1,_RNvNtNtCs20Ygd6RoaGo_10orion_core6render5testss_33draw_bitmap_pushes_bitmap_command
FNDA:1,_RNvNtNtCs20Ygd6RoaGo_10orion_core6render5testss_33game_menu_icons_cover_all_indices
FNDA:1,_RNvNtNtCs20Ygd6RoaGo_10orion_core6render5testss_34render_launcher_dispatches_to_home
FNDA:1,_RNvNtNtCs20Ygd6RoaGo_10orion_core6render5testss_37render_home_with_negative_temperature
FNDA:1,_RNvNtNtCs20Ygd6RoaGo_10orion_core6render5testss_39fill_rect_draws_for_positive_dimensions
FNDA:1,_RNvNtNtCs20Ygd6RoaGo_10orion_core6render5testss_39render_launcher_dispatches_to_game_menu
FNDA:1,_RNvNtNtCs20Ygd6RoaGo_10orion_core6render5testss_40home_renderer_records_full_screen_redraw
FNDA:1,_RNvNtNtCs20Ygd6RoaGo_10orion_core6render5testss_43fill_rect_skips_zero_or_negative_dimensions
FNDA:1,_RNvNtNtCs20Ygd6RoaGo_10orion_core6render5testss_45game_menu_renderer_records_full_screen_redraw
FNF:30
FNH:30
DA:36,34022
DA:37,34022
DA:38,2
DA:39,34020
DA:40,34020
DA:41,34020
DA:42,34020
DA:43,34020
DA:44,34022
DA:46,26
DA:47,26
DA:48,26
DA:50,5
DA:51,5
DA:52,5
DA:54,58
DA:55,58
DA:56,58
DA:64,97
DA:65,97
DA:66,97
DA:67,97
DA:68,97
DA:70,99
DA:71,99
DA:72,99
DA:74,9
DA:75,9
DA:76,9
DA:80,34083
DA:81,34083
DA:82,34083
DA:85,2
DA:86,2
DA:87,2
DA:88,2
DA:89,2
DA:90,2
DA:91,2
DA:92,2
DA:93,1
DA:94,1
DA:96,2
DA:98,5
DA:99,5
DA:100,5
DA:101,5
DA:102,5
DA:106,5
DA:111,5
DA:113,5
DA:114,5
DA:115,2
DA:116,3
DA:117,3
DA:118,3
DA:119,5
DA:121,5
DA:122,5
DA:123,2
DA:124,2
DA:125,2
DA:126,2
DA:127,2
DA:128,3
DA:129,3
DA:130,3
DA:131,5
DA:133,5
DA:134,5
DA:135,5
DA:136,5
DA:137,5
DA:139,3
DA:140,3
DA:141,3
DA:142,3
DA:143,3
DA:151,3
DA:152,3
DA:153,3
DA:154,3
DA:155,3
DA:156,9
DA:157,9
DA:158,9
DA:159,9
DA:160,9
DA:161,9
DA:162,9
DA:163,9
DA:164,3
DA:165,3
DA:166,3
DA:167,3
DA:169,5
DA:170,5
DA:171,5
DA:172,5
DA:173,2
DA:174,2
DA:175,2
DA:176,3
DA:177,3
DA:178,3
DA:179,5
DA:180,5
DA:182,5
DA:183,5
DA:184,2
DA:186,3
DA:188,5
DA:189,5
DA:190,5
DA:192,16
DA:193,16
DA:194,16
DA:195,16
DA:196,16
DA:197,5
DA:198,5
DA:199,5
DA:200,5
DA:201,5
DA:202,5
DA:203,4
DA:204,4
DA:205,4
DA:206,4
DA:207,4
DA:208,4
DA:209,2
DA:210,2
DA:211,2
DA:212,2
DA:213,2
DA:214,2
DA:215,2
DA:216,2
DA:217,2
DA:218,2
DA:219,3
DA:220,3
DA:221,3
DA:222,3
DA:223,3
DA:224,3
DA:225,3
DA:227,16
DA:234,1
DA:235,1
DA:236,1
DA:237,1
DA:238,1
DA:239,1
DA:242,1
DA:243,1
DA:246,1
DA:247,1
DA:248,1
DA:249,1
DA:250,1
DA:251,1
DA:254,1
DA:255,1
DA:258,1
DA:259,1
DA:260,1
DA:261,1
DA:262,1
DA:263,1
DA:266,1
DA:267,1
DA:268,1
DA:269,1
DA:270,1
DA:271,1
DA:274,1
DA:275,1
DA:276,1
DA:277,1
DA:278,1
DA:279,1
DA:280,1
DA:281,1
DA:282,1
DA:283,1
DA:284,1
DA:287,1
DA:290,1
DA:291,1
DA:292,1
DA:293,1
DA:294,1
DA:295,1
DA:296,1
DA:297,1
DA:298,1
DA:299,1
DA:300,1
DA:303,1
DA:306,1
DA:307,1
DA:308,1
DA:309,1
DA:310,1
DA:311,1
DA:312,1
DA:313,1
DA:314,1
DA:315,1
DA:316,1
DA:319,1
DA:322,1
DA:323,1
DA:324,1
DA:325,1
DA:326,1
DA:329,1
DA:332,1
DA:333,5
DA:334,5
DA:335,5
DA:336,5
DA:338,1
DA:339,1
DA:340,1
DA:341,1
DA:344,1
DA:345,1
DA:346,1
DA:347,1
DA:348,1
DA:351,1
DA:352,1
DA:353,1
DA:354,1
DA:355,1
DA:356,1
DA:357,1
DA:360,1
DA:361,1
DA:362,1
DA:363,1
DA:364,1
DA:367,1
DA:368,1
DA:369,1
DA:370,1
DA:371,1
DA:372,1
DA:375,1
DA:376,1
DA:377,1
DA:378,1
DA:379,1
DA:380,1
DA:383,1
DA:384,1
DA:385,1
DA:386,1
DA:387,1
DA:388,1
DA:391,1
DA:394,1
DA:395,1
DA:396,1
DA:397,1
DA:398,1
DA:399,1
DA:400,1
BRF:0
BRH:0
LF:271
LH:271
end_of_record
SF:/Users/ivan/projects/github/esp/orion-rust/crates/orion-core/src/rng.rs
FN:82,_RNvNtNtCs20Ygd6RoaGo_10orion_core3rng5testss_26scripted_rng_cycles_values
FN:92,_RNvNtNtCs20Ygd6RoaGo_10orion_core3rng5testss_37scripted_rng_index_modulates_by_limit
FN:62,_RNvNtNtCs20Ygd6RoaGo_10orion_core3rng5testss_39lcg_rng_produces_deterministic_sequence
FN:73,_RNvNtNtCs20Ygd6RoaGo_10orion_core3rng5testss_41lcg_rng_index_returns_values_within_limit
FN:40,_RINvMs0_NtCs20Ygd6RoaGo_10orion_core3rngNtB6_11ScriptedRng3newAmj1_EB8_
FN:40,_RINvMs0_NtCs20Ygd6RoaGo_10orion_core3rngNtB6_11ScriptedRng3newAmj2_EB8_
FN:40,_RINvMs0_NtCs20Ygd6RoaGo_10orion_core3rngNtB6_11ScriptedRng3newAmj3_EB8_
FN:40,_RINvMs0_NtCs20Ygd6RoaGo_10orion_core3rngNtB6_11ScriptedRng3newAmj4_EB8_
FN:40,_RINvMs0_NtCs20Ygd6RoaGo_10orion_core3rngNtB6_11ScriptedRng3newAmj6_EB8_
FN:40,_RINvMs0_NtCs20Ygd6RoaGo_10orion_core3rngNtB6_11ScriptedRng3newAmja_EB8_
FN:4,_RNvYNtNtCs20Ygd6RoaGo_10orion_core3rng11ScriptedRngNtB4_3Rng5indexB6_
FN:4,_RNvYNtNtCs20Ygd6RoaGo_10orion_core3rng6LcgRngNtB4_3Rng5indexB6_
FN:16,_RNvMNtCs20Ygd6RoaGo_10orion_core3rngNtB2_6LcgRng3new
FN:50,_RNvXs1_NtCs20Ygd6RoaGo_10orion_core3rngNtB5_11ScriptedRngNtB5_3Rng8next_u32
FN:22,_RNvXs_NtCs20Ygd6RoaGo_10orion_core3rngNtB4_6LcgRngNtB4_3Rng8next_u32
FNDA:1,_RNvNtNtCs20Ygd6RoaGo_10orion_core3rng5testss_26scripted_rng_cycles_values
FNDA:1,_RNvNtNtCs20Ygd6RoaGo_10orion_core3rng5testss_37scripted_rng_index_modulates_by_limit
FNDA:1,_RNvNtNtCs20Ygd6RoaGo_10orion_core3rng5testss_39lcg_rng_produces_deterministic_sequence
FNDA:1,_RNvNtNtCs20Ygd6RoaGo_10orion_core3rng5testss_41lcg_rng_index_returns_values_within_limit
FNDA:12,_RINvMs0_NtCs20Ygd6RoaGo_10orion_core3rngNtB6_11ScriptedRng3newAmj1_EB8_
FNDA:24,_RINvMs0_NtCs20Ygd6RoaGo_10orion_core3rngNtB6_11ScriptedRng3newAmj2_EB8_
FNDA:3,_RINvMs0_NtCs20Ygd6RoaGo_10orion_core3rngNtB6_11ScriptedRng3newAmj3_EB8_
FNDA:34,_RINvMs0_NtCs20Ygd6RoaGo_10orion_core3rngNtB6_11ScriptedRng3newAmj4_EB8_
FNDA:30,_RINvMs0_NtCs20Ygd6RoaGo_10orion_core3rngNtB6_11ScriptedRng3newAmj6_EB8_
FNDA:1,_RINvMs0_NtCs20Ygd6RoaGo_10orion_core3rngNtB6_11ScriptedRng3newAmja_EB8_
FNDA:556,_RNvYNtNtCs20Ygd6RoaGo_10orion_core3rng11ScriptedRngNtB4_3Rng5indexB6_
FNDA:100,_RNvYNtNtCs20Ygd6RoaGo_10orion_core3rng6LcgRngNtB4_3Rng5indexB6_
FNDA:3,_RNvMNtCs20Ygd6RoaGo_10orion_core3rngNtB2_6LcgRng3new
FNDA:561,_RNvXs1_NtCs20Ygd6RoaGo_10orion_core3rngNtB5_11ScriptedRngNtB5_3Rng8next_u32
FNDA:104,_RNvXs_NtCs20Ygd6RoaGo_10orion_core3rngNtB4_6LcgRngNtB4_3Rng8next_u32
FNF:9
FNH:9
DA:4,656
DA:5,656
DA:6,656
DA:7,656
DA:16,3
DA:17,3
DA:18,3
DA:22,104
DA:23,104
DA:24,104
DA:25,104
DA:26,104
DA:27,104
DA:28,104
DA:40,104
DA:41,104
DA:42,104
DA:43,104
DA:44,104
DA:45,104
DA:50,561
DA:51,561
DA:52,561
DA:53,561
DA:54,561
DA:62,1
DA:63,1
DA:64,1
DA:65,1
DA:66,1
DA:67,1
DA:68,1
DA:69,1
DA:70,1
DA:73,1
DA:74,1
DA:75,1
DA:76,100
DA:77,100
DA:79,1
DA:82,1
DA:83,1
DA:84,1
DA:85,1
DA:86,1
DA:87,1
DA:88,1
DA:89,1
DA:92,1
DA:93,1
DA:94,1
DA:95,1
BRF:0
BRH:0
LF:52
LH:52
end_of_record
SF:/Users/ivan/projects/github/esp/orion-rust/crates/orion-core/src/snake.rs
FN:407,_RINvMs1_NtCs20Ygd6RoaGo_10orion_core5snakeNtB6_9SnakeGame10place_foodNtNtB8_3rng11ScriptedRngEB8_
FN:367,_RINvMs1_NtCs20Ygd6RoaGo_10orion_core5snakeNtB6_9SnakeGame11set_optionsNtNtB8_5store20MemoryHighScoreStoreEB8_
FN:255,_RINvMs1_NtCs20Ygd6RoaGo_10orion_core5snakeNtB6_9SnakeGame12adjust_speedNtNtB8_5store20MemoryHighScoreStoreEB8_
FN:170,_RINvMs1_NtCs20Ygd6RoaGo_10orion_core5snakeNtB6_9SnakeGame12press_switchNtNtB8_5store20MemoryHighScoreStoreNtNtB8_3rng11ScriptedRngEB8_
FN:143,_RINvMs1_NtCs20Ygd6RoaGo_10orion_core5snakeNtB6_9SnakeGame14enter_choosingNtNtB8_5store20MemoryHighScoreStoreEB8_
FN:399,_RINvMs1_NtCs20Ygd6RoaGo_10orion_core5snakeNtB6_9SnakeGame18refresh_best_scoreNtNtB8_5store20MemoryHighScoreStoreEB8_
FN:225,_RINvMs1_NtCs20Ygd6RoaGo_10orion_core5snakeNtB6_9SnakeGame21adjust_selected_valueNtNtB8_5store20MemoryHighScoreStoreEB8_
FN:266,_RINvMs1_NtCs20Ygd6RoaGo_10orion_core5snakeNtB6_9SnakeGame4tickNtNtB8_5store20MemoryHighScoreStoreNtNtB8_3rng11ScriptedRngEB8_
FN:152,_RINvMs1_NtCs20Ygd6RoaGo_10orion_core5snakeNtB6_9SnakeGame5resetNtNtB8_5store20MemoryHighScoreStoreNtNtB8_3rng11ScriptedRngEB8_
FN:484,_RNvNtNtCs20Ygd6RoaGo_10orion_core5snake5testss_28wrap_mode_crosses_board_edge
FN:460,_RNvNtNtCs20Ygd6RoaGo_10orion_core5snake5testss_35ignores_immediate_reverse_direction
FN:447,_RNvNtNtCs20Ygd6RoaGo_10orion_core5snake5testss_42reset_starts_in_middle_with_food_off_snake
FN:471,_RNvNtNtCs20Ygd6RoaGo_10orion_core5snake5testss_48eating_scores_by_current_speed_and_persists_best
FN:33,_RNvMNtCs20Ygd6RoaGo_10orion_core5snakeNtB2_9SpeedTier10from_index
FN:24,_RNvMNtCs20Ygd6RoaGo_10orion_core5snakeNtB2_9SpeedTier5index
FN:322,_RNvMs1_NtCs20Ygd6RoaGo_10orion_core5snakeNtB5_9SnakeGame10best_score
FN:350,_RNvMs1_NtCs20Ygd6RoaGo_10orion_core5snakeNtB5_9SnakeGame10speed_tier
FN:354,_RNvMs1_NtCs20Ygd6RoaGo_10orion_core5snakeNtB5_9SnakeGame11border_mode
FN:310,_RNvMs1_NtCs20Ygd6RoaGo_10orion_core5snakeNtB5_9SnakeGame11mark_ticked
FN:306,_RNvMs1_NtCs20Ygd6RoaGo_10orion_core5snakeNtB5_9SnakeGame12due_for_tick
FN:379,_RNvMs1_NtCs20Ygd6RoaGo_10orion_core5snakeNtB5_9SnakeGame13next_head_for
FN:358,_RNvMs1_NtCs20Ygd6RoaGo_10orion_core5snakeNtB5_9SnakeGame14selected_field
FN:390,_RNvMs1_NtCs20Ygd6RoaGo_10orion_core5snakeNtB5_9SnakeGame14set_speed_tier
FN:197,_RNvMs1_NtCs20Ygd6RoaGo_10orion_core5snakeNtB5_9SnakeGame17request_direction
FN:203,_RNvMs1_NtCs20Ygd6RoaGo_10orion_core5snakeNtB5_9SnakeGame17select_next_field
FN:214,_RNvMs1_NtCs20Ygd6RoaGo_10orion_core5snakeNtB5_9SnakeGame21select_previous_field
FN:346,_RNvMs1_NtCs20Ygd6RoaGo_10orion_core5snakeNtB5_9SnakeGame4food
FN:330,_RNvMs1_NtCs20Ygd6RoaGo_10orion_core5snakeNtB5_9SnakeGame4head
FN:314,_RNvMs1_NtCs20Ygd6RoaGo_10orion_core5snakeNtB5_9SnakeGame4mode
FN:334,_RNvMs1_NtCs20Ygd6RoaGo_10orion_core5snakeNtB5_9SnakeGame4tail
FN:318,_RNvMs1_NtCs20Ygd6RoaGo_10orion_core5snakeNtB5_9SnakeGame5score
FN:326,_RNvMs1_NtCs20Ygd6RoaGo_10orion_core5snakeNtB5_9SnakeGame6length
FN:403,_RNvMs1_NtCs20Ygd6RoaGo_10orion_core5snakeNtB5_9SnakeGame8contains
FN:363,_RNvMs1_NtCs20Ygd6RoaGo_10orion_core5snakeNtB5_9SnakeGame8set_mode
FN:338,_RNvMs1_NtCs20Ygd6RoaGo_10orion_core5snakeNtB5_9SnakeGame8snake_at
FN:342,_RNvMs1_NtCs20Ygd6RoaGo_10orion_core5snakeNtB5_9SnakeGame9direction
FN:51,_RNvMs_NtCs20Ygd6RoaGo_10orion_core5snakeNtB4_10BorderMode5index
FN:73,_RNvNtCs20Ygd6RoaGo_10orion_core5snake12speed_config
FN:98,_RNvNtCs20Ygd6RoaGo_10orion_core5snake16border_mode_name
FN:426,_RNvNtCs20Ygd6RoaGo_10orion_core5snake16cycle_speed_tier
FN:430,_RNvNtCs20Ygd6RoaGo_10orion_core5snake17cycle_border_mode
FN:123,_RNvXs0_NtCs20Ygd6RoaGo_10orion_core5snakeNtB5_9SnakeGameNtNtCs6sq8b9ugfBC_4core7default7Default7default
FNDA:24,_RINvMs1_NtCs20Ygd6RoaGo_10orion_core5snakeNtB6_9SnakeGame10place_foodNtNtB8_3rng11ScriptedRngEB8_
FNDA:2,_RINvMs1_NtCs20Ygd6RoaGo_10orion_core5snakeNtB6_9SnakeGame11set_optionsNtNtB8_5store20MemoryHighScoreStoreEB8_
FNDA:1,_RINvMs1_NtCs20Ygd6RoaGo_10orion_core5snakeNtB6_9SnakeGame12adjust_speedNtNtB8_5store20MemoryHighScoreStoreEB8_
FNDA:18,_RINvMs1_NtCs20Ygd6RoaGo_10orion_core5snakeNtB6_9SnakeGame12press_switchNtNtB8_5store20MemoryHighScoreStoreNtNtB8_3rng11ScriptedRngEB8_
FNDA:17,_RINvMs1_NtCs20Ygd6RoaGo_10orion_core5snakeNtB6_9SnakeGame14enter_choosingNtNtB8_5store20MemoryHighScoreStoreEB8_
FNDA:46,_RINvMs1_NtCs20Ygd6RoaGo_10orion_core5snakeNtB6_9SnakeGame18refresh_best_scoreNtNtB8_5store20MemoryHighScoreStoreEB8_
FNDA:2,_RINvMs1_NtCs20Ygd6RoaGo_10orion_core5snakeNtB6_9SnakeGame21adjust_selected_valueNtNtB8_5store20MemoryHighScoreStoreEB8_
FNDA:13,_RINvMs1_NtCs20Ygd6RoaGo_10orion_core5snakeNtB6_9SnakeGame4tickNtNtB8_5store20MemoryHighScoreStoreNtNtB8_3rng11ScriptedRngEB8_
FNDA:23,_RINvMs1_NtCs20Ygd6RoaGo_10orion_core5snakeNtB6_9SnakeGame5resetNtNtB8_5store20MemoryHighScoreStoreNtNtB8_3rng11ScriptedRngEB8_
FNDA:1,_RNvNtNtCs20Ygd6RoaGo_10orion_core5snake5testss_28wrap_mode_crosses_board_edge
FNDA:1,_RNvNtNtCs20Ygd6RoaGo_10orion_core5snake5testss_35ignores_immediate_reverse_direction
FNDA:1,_RNvNtNtCs20Ygd6RoaGo_10orion_core5snake5testss_42reset_starts_in_middle_with_food_off_snake
FNDA:1,_RNvNtNtCs20Ygd6RoaGo_10orion_core5snake5testss_48eating_scores_by_current_speed_and_persists_best
FNDA:3,_RNvMNtCs20Ygd6RoaGo_10orion_core5snakeNtB2_9SpeedTier10from_index
FNDA:54,_RNvMNtCs20Ygd6RoaGo_10orion_core5snakeNtB2_9SpeedTier5index
FNDA:14,_RNvMs1_NtCs20Ygd6RoaGo_10orion_core5snakeNtB5_9SnakeGame10best_score
FNDA:9,_RNvMs1_NtCs20Ygd6RoaGo_10orion_core5snakeNtB5_9SnakeGame10speed_tier
FNDA:9,_RNvMs1_NtCs20Ygd6RoaGo_10orion_core5snakeNtB5_9SnakeGame11border_mode
FNDA:0,_RNvMs1_NtCs20Ygd6RoaGo_10orion_core5snakeNtB5_9SnakeGame11mark_ticked
FNDA:24,_RNvMs1_NtCs20Ygd6RoaGo_10orion_core5snakeNtB5_9SnakeGame12due_for_tick
FNDA:13,_RNvMs1_NtCs20Ygd6RoaGo_10orion_core5snakeNtB5_9SnakeGame13next_head_for
FNDA:17,_RNvMs1_NtCs20Ygd6RoaGo_10orion_core5snakeNtB5_9SnakeGame14selected_field
FNDA:3,_RNvMs1_NtCs20Ygd6RoaGo_10orion_core5snakeNtB5_9SnakeGame14set_speed_tier
FNDA:2,_RNvMs1_NtCs20Ygd6RoaGo_10orion_core5snakeNtB5_9SnakeGame17request_direction
FNDA:3,_RNvMs1_NtCs20Ygd6RoaGo_10orion_core5snakeNtB5_9SnakeGame17select_next_field
FNDA:0,_RNvMs1_NtCs20Ygd6RoaGo_10orion_core5snakeNtB5_9SnakeGame21select_previous_field
FNDA:10,_RNvMs1_NtCs20Ygd6RoaGo_10orion_core5snakeNtB5_9SnakeGame4food
FNDA:12,_RNvMs1_NtCs20Ygd6RoaGo_10orion_core5snakeNtB5_9SnakeGame4head
FNDA:72,_RNvMs1_NtCs20Ygd6RoaGo_10orion_core5snakeNtB5_9SnakeGame4mode
FNDA:21,_RNvMs1_NtCs20Ygd6RoaGo_10orion_core5snakeNtB5_9SnakeGame4tail
FNDA:14,_RNvMs1_NtCs20Ygd6RoaGo_10orion_core5snakeNtB5_9SnakeGame5score
FNDA:62,_RNvMs1_NtCs20Ygd6RoaGo_10orion_core5snakeNtB5_9SnakeGame6length
FNDA:37,_RNvMs1_NtCs20Ygd6RoaGo_10orion_core5snakeNtB5_9SnakeGame8contains
FNDA:3,_RNvMs1_NtCs20Ygd6RoaGo_10orion_core5snakeNtB5_9SnakeGame8set_mode
FNDA:54,_RNvMs1_NtCs20Ygd6RoaGo_10orion_core5snakeNtB5_9SnakeGame8snake_at
FNDA:10,_RNvMs1_NtCs20Ygd6RoaGo_10orion_core5snakeNtB5_9SnakeGame9direction
FNDA:51,_RNvMs_NtCs20Ygd6RoaGo_10orion_core5snakeNtB4_10BorderMode5index
FNDA:68,_RNvNtCs20Ygd6RoaGo_10orion_core5snake12speed_config
FNDA:9,_RNvNtCs20Ygd6RoaGo_10orion_core5snake16border_mode_name
FNDA:3,_RNvNtCs20Ygd6RoaGo_10orion_core5snake16cycle_speed_tier
FNDA:0,_RNvNtCs20Ygd6RoaGo_10orion_core5snake17cycle_border_mode
FNDA:30,_RNvXs0_NtCs20Ygd6RoaGo_10orion_core5snakeNtB5_9SnakeGameNtNtCs6sq8b9ugfBC_4core7default7Default7default
FNF:42
FNH:39
DA:24,54
DA:25,54
DA:26,0
DA:27,43
DA:28,6
DA:29,5
DA:31,54
DA:33,3
DA:34,3
DA:35,0
DA:36,0
DA:37,3
DA:38,0
DA:39,0
DA:41,3
DA:51,51
DA:52,51
DA:53,46
DA:54,5
DA:56,51
DA:73,68
DA:74,68
DA:75,0
DA:76,0
DA:77,0
DA:78,0
DA:79,0
DA:80,61
DA:81,61
DA:82,61
DA:83,61
DA:84,61
DA:85,4
DA:86,4
DA:87,4
DA:88,4
DA:89,4
DA:90,3
DA:91,3
DA:92,3
DA:93,3
DA:94,3
DA:96,68
DA:98,9
DA:99,9
DA:100,9
DA:101,0
DA:103,9
DA:123,30
DA:124,30
DA:125,30
DA:126,30
DA:127,30
DA:128,30
DA:129,30
DA:130,30
DA:131,30
DA:132,30
DA:133,30
DA:134,30
DA:135,30
DA:136,30
DA:137,30
DA:138,30
DA:139,30
DA:143,17
DA:144,17
DA:145,17
DA:146,17
DA:147,17
DA:148,17
DA:149,17
DA:150,17
DA:152,23
DA:153,23
DA:154,23
DA:155,23
DA:156,23
DA:157,23
DA:158,23
DA:159,23
DA:160,23
DA:162,23
DA:163,23
DA:164,92
DA:165,92
DA:166,92
DA:167,23
DA:168,23
DA:170,18
DA:171,18
DA:172,18
DA:173,18
DA:174,18
DA:175,18
DA:176,18
DA:178,10
DA:179,10
DA:182,1
DA:183,1
DA:186,1
DA:187,1
DA:188,1
DA:191,6
DA:192,6
DA:195,18
DA:197,2
DA:198,2
DA:199,1
DA:200,1
DA:201,2
DA:203,3
DA:204,3
DA:205,2
DA:206,1
DA:207,0
DA:209,3
DA:210,3
DA:211,3
DA:212,3
DA:214,0
DA:215,0
DA:216,0
DA:217,0
DA:218,0
DA:220,0
DA:221,0
DA:222,0
DA:223,0
DA:225,2
DA:226,2
DA:227,2
DA:228,2
DA:229,2
DA:230,2
DA:231,0
DA:232,2
DA:234,2
DA:236,2
DA:239,0
DA:240,0
DA:241,0
DA:243,0
DA:244,0
DA:247,0
DA:249,2
DA:250,2
DA:251,2
DA:252,2
DA:253,2
DA:255,1
DA:256,1
DA:257,0
DA:258,1
DA:259,1
DA:260,1
DA:261,1
DA:262,1
DA:263,1
DA:264,1
DA:266,13
DA:267,13
DA:268,0
DA:269,13
DA:271,13
DA:272,13
DA:273,13
DA:274,11
DA:275,11
DA:276,0
DA:277,0
DA:278,2
DA:280,13
DA:281,13
DA:282,1
DA:284,12
DA:286,13
DA:287,0
DA:288,0
DA:289,13
DA:291,13
DA:292,40
DA:293,40
DA:294,40
DA:295,13
DA:296,13
DA:298,13
DA:299,1
DA:300,1
DA:301,1
DA:302,1
DA:303,12
DA:304,13
DA:306,24
DA:307,24
DA:308,24
DA:310,0
DA:311,0
DA:312,0
DA:314,72
DA:315,72
DA:316,72
DA:318,14
DA:319,14
DA:320,14
DA:322,14
DA:323,14
DA:324,14
DA:326,62
DA:327,62
DA:328,62
DA:330,12
DA:331,12
DA:332,12
DA:334,21
DA:335,21
DA:336,21
DA:338,54
DA:339,54
DA:340,54
DA:342,10
DA:343,10
DA:344,10
DA:346,10
DA:347,10
DA:348,10
DA:350,9
DA:351,9
DA:352,9
DA:354,9
DA:355,9
DA:356,9
DA:358,17
DA:359,17
DA:360,17
DA:363,3
DA:364,3
DA:365,3
DA:367,2
DA:368,2
DA:369,2
DA:370,2
DA:371,2
DA:372,2
DA:373,2
DA:374,2
DA:375,2
DA:376,2
DA:377,2
DA:379,13
DA:380,13
DA:381,13
DA:382,0
DA:383,0
DA:384,0
DA:385,13
DA:387,13
DA:388,13
DA:390,3
DA:391,3
DA:392,0
DA:393,3
DA:394,3
DA:395,3
DA:396,3
DA:397,3
DA:399,46
DA:400,46
DA:401,46
DA:403,37
DA:404,37
DA:405,37
DA:407,24
DA:408,24
DA:409,0
DA:410,0
DA:411,24
DA:414,24
DA:415,24
DA:416,24
DA:418,24
DA:419,24
DA:420,24
DA:421,0
DA:423,24
DA:426,3
DA:427,3
DA:428,3
DA:430,0
DA:431,0
DA:432,0
DA:433,0
DA:434,0
DA:435,0
DA:436,0
DA:438,0
DA:447,1
DA:448,1
DA:449,1
DA:450,1
DA:451,1
DA:453,1
DA:454,1
DA:455,1
DA:456,1
DA:457,1
DA:460,1
DA:461,1
DA:462,1
DA:463,1
DA:464,1
DA:465,1
DA:466,1
DA:467,1
DA:468,1
DA:471,1
DA:472,1
DA:473,1
DA:474,1
DA:475,1
DA:476,1
DA:477,1
DA:479,1
DA:480,1
DA:481,1
DA:484,1
DA:485,1
DA:486,1
DA:487,1
DA:488,1
DA:489,1
DA:490,11
DA:491,11
DA:492,11
DA:493,1
DA:494,1
DA:495,1
BRF:0
BRH:0
LF:337
LH:285
end_of_record
SF:/Users/ivan/projects/github/esp/orion-rust/crates/orion-core/src/snake_application.rs
FN:84,_RINvMNtCs20Ygd6RoaGo_10orion_core17snake_applicationNtB3_16SnakeApplication11render_fullNtNtB5_6render16RecordingDisplayEB5_
FN:104,_RINvMNtCs20Ygd6RoaGo_10orion_core17snake_applicationNtB3_16SnakeApplication12handle_inputNtNtB5_6render16RecordingDisplayNtNtB5_5store20MemoryHighScoreStoreNtNtB5_3rng11ScriptedRngEB5_
FN:191,_RINvMNtCs20Ygd6RoaGo_10orion_core17snake_applicationNtB3_16SnakeApplication18handle_setup_inputNtNtB5_5store20MemoryHighScoreStoreNtNtB5_3rng11ScriptedRngEB5_
FN:156,_RINvMNtCs20Ygd6RoaGo_10orion_core17snake_applicationNtB3_16SnakeApplication19handle_paused_inputNtNtB5_5store20MemoryHighScoreStoreNtNtB5_3rng11ScriptedRngEB5_
FN:129,_RINvMNtCs20Ygd6RoaGo_10orion_core17snake_applicationNtB3_16SnakeApplication20handle_playing_inputNtNtB5_6render16RecordingDisplayNtNtB5_5store20MemoryHighScoreStoreNtNtB5_3rng11ScriptedRngEB5_
FN:36,_RINvMNtCs20Ygd6RoaGo_10orion_core17snake_applicationNtB3_16SnakeApplication5enterNtNtB5_5store20MemoryHighScoreStoreEB5_
FN:41,_RINvMNtCs20Ygd6RoaGo_10orion_core17snake_applicationNtB3_16SnakeApplication6updateNtNtB5_6render16RecordingDisplayNtNtB5_5store20MemoryHighScoreStoreNtNtB5_3rng11ScriptedRngEB5_
FN:261,_RNvNtNtCs20Ygd6RoaGo_10orion_core17snake_application5tests13start_playing
FN:630,_RNvNtNtCs20Ygd6RoaGo_10orion_core17snake_application5testss_19title_returns_snake
FN:620,_RNvNtNtCs20Ygd6RoaGo_10orion_core17snake_application5testss_23render_full_when_paused
FN:377,_RNvNtNtCs20Ygd6RoaGo_10orion_core17snake_application5testss_27pause_encoder_cycles_action
FN:357,_RNvNtNtCs20Ygd6RoaGo_10orion_core17snake_application5testss_27switch_pauses_while_playing
FN:528,_RNvNtNtCs20Ygd6RoaGo_10orion_core17snake_application5testss_30choosing_encoder_changes_value
FN:444,_RNvNtNtCs20Ygd6RoaGo_10orion_core17snake_application5testss_30pause_exit_returns_to_launcher
FN:411,_RNvNtNtCs20Ygd6RoaGo_10orion_core17snake_application5testss_30pause_resume_continues_playing
FN:612,_RNvNtNtCs20Ygd6RoaGo_10orion_core17snake_application5testss_31accept_menu_direction_throttles
FN:636,_RNvNtNtCs20Ygd6RoaGo_10orion_core17snake_application5testss_36game_over_switch_returns_to_choosing
FN:579,_RNvNtNtCs20Ygd6RoaGo_10orion_core17snake_application5testss_38pause_joystick_direction_cycles_action
FN:477,_RNvNtNtCs20Ygd6RoaGo_10orion_core17snake_application5testss_39choosing_joystick_up_down_changes_field
FN:503,_RNvNtNtCs20Ygd6RoaGo_10orion_core17snake_application5testss_42choosing_joystick_left_right_changes_speed
FN:552,_RNvNtNtCs20Ygd6RoaGo_10orion_core17snake_application5testss_43choosing_switch_on_exit_returns_to_launcher
FN:285,_RNvNtNtCs20Ygd6RoaGo_10orion_core17snake_application5testss_43switch_starts_game_and_requests_full_redraw
FN:311,_RNvNtNtCs20Ygd6RoaGo_10orion_core17snake_application5testss_46encoder_speed_change_renders_hud_while_playing
FN:337,_RNvNtNtCs20Ygd6RoaGo_10orion_core17snake_application5testss_51joystick_direction_requests_direction_while_playing
FN:238,_RNvMNtCs20Ygd6RoaGo_10orion_core17snake_applicationNtB2_16SnakeApplication18cycle_pause_action
FN:230,_RNvMNtCs20Ygd6RoaGo_10orion_core17snake_applicationNtB2_16SnakeApplication21accept_menu_direction
FN:24,_RNvMNtCs20Ygd6RoaGo_10orion_core17snake_applicationNtB2_16SnakeApplication3new
FN:100,_RNvMNtCs20Ygd6RoaGo_10orion_core17snake_applicationNtB2_16SnakeApplication4game
FN:32,_RNvMNtCs20Ygd6RoaGo_10orion_core17snake_applicationNtB2_16SnakeApplication5title
FN:248,_RNvXs_NtCs20Ygd6RoaGo_10orion_core17snake_applicationNtB4_16SnakeApplicationNtNtCs6sq8b9ugfBC_4core7default7Default7default
FNDA:1,_RINvMNtCs20Ygd6RoaGo_10orion_core17snake_applicationNtB3_16SnakeApplication11render_fullNtNtB5_6render16RecordingDisplayEB5_
FNDA:26,_RINvMNtCs20Ygd6RoaGo_10orion_core17snake_applicationNtB3_16SnakeApplication12handle_inputNtNtB5_6render16RecordingDisplayNtNtB5_5store20MemoryHighScoreStoreNtNtB5_3rng11ScriptedRngEB5_
FNDA:15,_RINvMNtCs20Ygd6RoaGo_10orion_core17snake_applicationNtB3_16SnakeApplication18handle_setup_inputNtNtB5_5store20MemoryHighScoreStoreNtNtB5_3rng11ScriptedRngEB5_
FNDA:4,_RINvMNtCs20Ygd6RoaGo_10orion_core17snake_applicationNtB3_16SnakeApplication19handle_paused_inputNtNtB5_5store20MemoryHighScoreStoreNtNtB5_3rng11ScriptedRngEB5_
FNDA:7,_RINvMNtCs20Ygd6RoaGo_10orion_core17snake_applicationNtB3_16SnakeApplication20handle_playing_inputNtNtB5_6render16RecordingDisplayNtNtB5_5store20MemoryHighScoreStoreNtNtB5_3rng11ScriptedRngEB5_
FNDA:14,_RINvMNtCs20Ygd6RoaGo_10orion_core17snake_applicationNtB3_16SnakeApplication5enterNtNtB5_5store20MemoryHighScoreStoreEB5_
FNDA:26,_RINvMNtCs20Ygd6RoaGo_10orion_core17snake_applicationNtB3_16SnakeApplication6updateNtNtB5_6render16RecordingDisplayNtNtB5_5store20MemoryHighScoreStoreNtNtB5_3rng11ScriptedRngEB5_
FNDA:9,_RNvNtNtCs20Ygd6RoaGo_10orion_core17snake_application5tests13start_playing
FNDA:1,_RNvNtNtCs20Ygd6RoaGo_10orion_core17snake_application5testss_19title_returns_snake
FNDA:1,_RNvNtNtCs20Ygd6RoaGo_10orion_core17snake_application5testss_23render_full_when_paused
FNDA:1,_RNvNtNtCs20Ygd6RoaGo_10orion_core17snake_application5testss_27pause_encoder_cycles_action
FNDA:1,_RNvNtNtCs20Ygd6RoaGo_10orion_core17snake_application5testss_27switch_pauses_while_playing
FNDA:1,_RNvNtNtCs20Ygd6RoaGo_10orion_core17snake_application5testss_30choosing_encoder_changes_value
FNDA:1,_RNvNtNtCs20Ygd6RoaGo_10orion_core17snake_application5testss_30pause_exit_returns_to_launcher
FNDA:1,_RNvNtNtCs20Ygd6RoaGo_10orion_core17snake_application5testss_30pause_resume_continues_playing
FNDA:1,_RNvNtNtCs20Ygd6RoaGo_10orion_core17snake_application5testss_31accept_menu_direction_throttles
FNDA:1,_RNvNtNtCs20Ygd6RoaGo_10orion_core17snake_application5testss_36game_over_switch_returns_to_choosing
FNDA:1,_RNvNtNtCs20Ygd6RoaGo_10orion_core17snake_application5testss_38pause_joystick_direction_cycles_action
FNDA:1,_RNvNtNtCs20Ygd6RoaGo_10orion_core17snake_application5testss_39choosing_joystick_up_down_changes_field
FNDA:1,_RNvNtNtCs20Ygd6RoaGo_10orion_core17snake_application5testss_42choosing_joystick_left_right_changes_speed
FNDA:1,_RNvNtNtCs20Ygd6RoaGo_10orion_core17snake_application5testss_43choosing_switch_on_exit_returns_to_launcher
FNDA:1,_RNvNtNtCs20Ygd6RoaGo_10orion_core17snake_application5testss_43switch_starts_game_and_requests_full_redraw
FNDA:1,_RNvNtNtCs20Ygd6RoaGo_10orion_core17snake_application5testss_46encoder_speed_change_renders_hud_while_playing
FNDA:1,_RNvNtNtCs20Ygd6RoaGo_10orion_core17snake_application5testss_51joystick_direction_requests_direction_while_playing
FNDA:3,_RNvMNtCs20Ygd6RoaGo_10orion_core17snake_applicationNtB2_16SnakeApplication18cycle_pause_action
FNDA:6,_RNvMNtCs20Ygd6RoaGo_10orion_core17snake_applicationNtB2_16SnakeApplication21accept_menu_direction
FNDA:16,_RNvMNtCs20Ygd6RoaGo_10orion_core17snake_applicationNtB2_16SnakeApplication3new
FNDA:17,_RNvMNtCs20Ygd6RoaGo_10orion_core17snake_applicationNtB2_16SnakeApplication4game
FNDA:1,_RNvMNtCs20Ygd6RoaGo_10orion_core17snake_applicationNtB2_16SnakeApplication5title
FNDA:0,_RNvXs_NtCs20Ygd6RoaGo_10orion_core17snake_applicationNtB4_16SnakeApplicationNtNtCs6sq8b9ugfBC_4core7default7Default7default
FNF:30
FNH:29
DA:24,16
DA:25,16
DA:26,16
DA:27,16
DA:28,16
DA:29,16
DA:30,16
DA:32,1
DA:33,1
DA:34,1
DA:36,14
DA:37,14
DA:38,14
DA:39,14
DA:41,26
DA:42,26
DA:43,26
DA:44,26
DA:45,26
DA:46,26
DA:47,26
DA:48,26
DA:49,26
DA:50,26
DA:51,26
DA:52,26
DA:53,2
DA:54,24
DA:56,24
DA:57,0
DA:58,0
DA:59,0
DA:60,0
DA:61,0
DA:62,0
DA:63,0
DA:64,0
DA:65,0
DA:66,0
DA:67,0
DA:68,0
DA:69,0
DA:70,0
DA:71,0
DA:72,0
DA:73,0
DA:74,0
DA:75,24
DA:77,24
DA:78,22
DA:80,2
DA:82,26
DA:84,1
DA:85,1
DA:86,1
DA:87,1
DA:88,1
DA:89,1
DA:90,1
DA:92,0
DA:95,0
DA:96,0
DA:97,0
DA:98,1
DA:100,17
DA:101,17
DA:102,17
DA:104,26
DA:105,26
DA:106,26
DA:107,26
DA:108,26
DA:109,26
DA:110,26
DA:111,26
DA:112,26
DA:113,26
DA:115,7
DA:117,4
DA:119,15
DA:120,15
DA:121,15
DA:122,1
DA:123,14
DA:124,15
DA:127,26
DA:129,7
DA:130,7
DA:131,7
DA:132,7
DA:133,7
DA:134,7
DA:135,7
DA:136,7
DA:137,7
DA:138,7
DA:139,7
DA:140,7
DA:141,1
DA:142,1
DA:143,6
DA:144,7
DA:145,1
DA:146,1
DA:147,6
DA:148,7
DA:149,5
DA:150,5
DA:151,5
DA:152,2
DA:153,2
DA:154,7
DA:156,4
DA:157,4
DA:158,4
DA:159,4
DA:160,4
DA:161,4
DA:162,4
DA:163,4
DA:164,4
DA:165,4
DA:166,1
DA:167,1
DA:168,3
DA:169,4
DA:170,1
DA:171,0
DA:172,1
DA:175,1
DA:176,1
DA:177,1
DA:178,3
DA:179,4
DA:180,2
DA:181,1
DA:182,1
DA:183,1
DA:184,1
DA:185,1
DA:186,1
DA:187,2
DA:188,4
DA:189,4
DA:191,15
DA:192,15
DA:193,15
DA:194,15
DA:195,15
DA:196,15
DA:197,15
DA:198,15
DA:199,15
DA:200,15
DA:201,15
DA:202,12
DA:203,1
DA:204,1
DA:205,11
DA:207,3
DA:208,15
DA:209,1
DA:210,1
DA:211,1
DA:212,0
DA:213,14
DA:214,15
DA:215,2
DA:217,0
DA:220,1
DA:222,0
DA:223,1
DA:224,0
DA:226,13
DA:227,15
DA:228,15
DA:230,6
DA:231,6
DA:232,1
DA:233,5
DA:234,5
DA:235,5
DA:236,6
DA:238,3
DA:239,3
DA:240,3
DA:242,0
DA:244,3
DA:248,0
DA:249,0
DA:250,0
DA:261,9
DA:262,9
DA:263,9
DA:264,9
DA:265,9
DA:266,9
DA:267,9
DA:268,9
DA:269,9
DA:270,9
DA:271,9
DA:272,9
DA:273,9
DA:274,9
DA:275,9
DA:276,9
DA:277,9
DA:278,9
DA:279,9
DA:280,9
DA:281,9
DA:282,9
DA:285,1
DA:286,1
DA:287,1
DA:288,1
DA:289,1
DA:290,1
DA:292,1
DA:293,1
DA:294,1
DA:295,1
DA:296,1
DA:297,1
DA:298,1
DA:299,1
DA:300,1
DA:301,1
DA:302,1
DA:306,1
DA:307,1
DA:308,1
DA:311,1
DA:312,1
DA:313,1
DA:315,1
DA:316,1
DA:317,1
DA:318,1
DA:319,1
DA:320,1
DA:321,1
DA:322,1
DA:323,1
DA:324,1
DA:325,1
DA:329,1
DA:330,1
DA:331,1
DA:334,1
DA:337,1
DA:338,1
DA:339,1
DA:340,1
DA:341,1
DA:342,1
DA:343,1
DA:344,1
DA:345,1
DA:346,1
DA:347,1
DA:348,1
DA:349,1
DA:350,1
DA:351,1
DA:352,1
DA:353,1
DA:354,1
DA:357,1
DA:358,1
DA:359,1
DA:360,1
DA:361,1
DA:362,1
DA:363,1
DA:364,1
DA:365,1
DA:366,1
DA:367,1
DA:368,1
DA:369,1
DA:372,1
DA:373,1
DA:374,1
DA:377,1
DA:378,1
DA:379,1
DA:380,1
DA:381,1
DA:382,1
DA:383,1
DA:384,1
DA:385,1
DA:386,1
DA:387,1
DA:388,1
DA:389,1
DA:390,1
DA:391,1
DA:392,1
DA:394,1
DA:395,1
DA:396,1
DA:397,1
DA:398,1
DA:399,1
DA:400,1
DA:401,1
DA:402,1
DA:403,1
DA:404,1
DA:407,1
DA:408,1
DA:411,1
DA:412,1
DA:413,1
DA:414,1
DA:415,1
DA:416,1
DA:417,1
DA:418,1
DA:419,1
DA:420,1
DA:421,1
DA:422,1
DA:423,1
DA:424,1
DA:425,1
DA:426,1
DA:427,1
DA:428,1
DA:429,1
DA:430,1
DA:431,1
DA:432,1
DA:433,1
DA:434,1
DA:435,1
DA:436,1
DA:439,1
DA:440,1
DA:441,1
DA:444,1
DA:445,1
DA:446,1
DA:447,1
DA:448,1
DA:449,1
DA:450,1
DA:451,1
DA:452,1
DA:453,1
DA:454,1
DA:455,1
DA:456,1
DA:457,1
DA:458,1
DA:459,1
DA:460,1
DA:461,1
DA:462,1
DA:463,1
DA:464,1
DA:465,1
DA:466,1
DA:467,1
DA:468,1
DA:469,1
DA:470,1
DA:473,1
DA:474,1
DA:477,1
DA:478,1
DA:479,1
DA:480,1
DA:481,1
DA:482,1
DA:484,1
DA:485,1
DA:486,1
DA:487,1
DA:488,1
DA:489,1
DA:490,1
DA:491,1
DA:492,1
DA:493,1
DA:494,1
DA:495,1
DA:498,1
DA:499,1
DA:500,1
DA:503,1
DA:504,1
DA:505,1
DA:506,1
DA:507,1
DA:508,1
DA:510,1
DA:511,1
DA:512,1
DA:513,1
DA:514,1
DA:515,1
DA:516,1
DA:517,1
DA:518,1
DA:519,1
DA:520,1
DA:521,1
DA:524,1
DA:525,1
DA:528,1
DA:529,1
DA:530,1
DA:531,1
DA:532,1
DA:533,1
DA:535,1
DA:536,1
DA:537,1
DA:538,1
DA:539,1
DA:540,1
DA:541,1
DA:542,1
DA:543,1
DA:544,1
DA:545,1
DA:548,1
DA:549,1
DA:552,1
DA:553,1
DA:554,1
DA:555,1
DA:556,1
DA:557,1
DA:558,1
DA:559,1
DA:560,1
DA:562,1
DA:563,1
DA:564,1
DA:565,1
DA:566,1
DA:567,1
DA:568,1
DA:569,1
DA:570,1
DA:571,1
DA:572,1
DA:575,1
DA:576,1
DA:579,1
DA:580,1
DA:581,1
DA:582,1
DA:583,1
DA:584,1
DA:585,1
DA:586,1
DA:587,1
DA:588,1
DA:589,1
DA:590,1
DA:591,1
DA:592,1
DA:593,1
DA:594,1
DA:595,1
DA:596,1
DA:597,1
DA:598,1
DA:599,1
DA:600,1
DA:601,1
DA:602,1
DA:603,1
DA:604,1
DA:605,1
DA:608,1
DA:609,1
DA:612,1
DA:613,1
DA:614,1
DA:615,1
DA:616,1
DA:617,1
DA:620,1
DA:621,1
DA:622,1
DA:623,1
DA:624,1
DA:625,1
DA:626,1
DA:627,1
DA:630,1
DA:631,1
DA:632,1
DA:633,1
DA:636,1
DA:637,1
DA:638,1
DA:639,1
DA:640,1
DA:641,1
DA:642,1
DA:643,1
DA:644,1
DA:645,1
DA:646,1
DA:647,1
DA:648,1
DA:649,1
DA:652,1
DA:653,1
BRF:0
BRH:0
LF:517
LH:486
end_of_record
SF:/Users/ivan/projects/github/esp/orion-rust/crates/orion-core/src/snake_renderer.rs
FN:403,_RNCNvNtNtCs20Ygd6RoaGo_10orion_core14snake_renderer5testss_42playing_render_draws_bitmap_free_pixel_art0B7_
FN:78,_RINvNtCs20Ygd6RoaGo_10orion_core14snake_renderer10render_hudNtNtB4_6render16RecordingDisplayEB4_
FN:153,_RINvNtCs20Ygd6RoaGo_10orion_core14snake_renderer15draw_snake_bodyNtNtB4_6render16RecordingDisplayEB4_
FN:179,_RINvNtCs20Ygd6RoaGo_10orion_core14snake_renderer15draw_snake_headNtNtB4_6render16RecordingDisplayEB4_
FN:241,_RINvNtCs20Ygd6RoaGo_10orion_core14snake_renderer15draw_snake_tailNtNtB4_6render16RecordingDisplayEB4_
FN:118,_RINvNtCs20Ygd6RoaGo_10orion_core14snake_renderer16clear_board_cellNtNtB4_6render16RecordingDisplayEB4_
FN:301,_RINvNtCs20Ygd6RoaGo_10orion_core14snake_renderer17draw_start_screenNtNtB4_6render16RecordingDisplayEB4_
FN:69,_RINvNtCs20Ygd6RoaGo_10orion_core14snake_renderer17render_pause_menuNtNtB4_6render16RecordingDisplayEB4_
FN:83,_RINvNtCs20Ygd6RoaGo_10orion_core14snake_renderer17render_tick_deltaNtNtB4_6render16RecordingDisplayEB4_
FN:139,_RINvNtCs20Ygd6RoaGo_10orion_core14snake_renderer18draw_snake_body_atNtNtB4_6render16RecordingDisplayEB4_
FN:129,_RINvNtCs20Ygd6RoaGo_10orion_core14snake_renderer18draw_snake_segmentNtNtB4_6render16RecordingDisplayEB4_
FN:170,_RINvNtCs20Ygd6RoaGo_10orion_core14snake_renderer19draw_snake_body_armNtNtB4_6render16RecordingDisplayEB4_
FN:253,_RINvNtCs20Ygd6RoaGo_10orion_core14snake_renderer20draw_snake_tail_cellNtNtB4_6render16RecordingDisplayEB4_
FN:216,_RINvNtCs20Ygd6RoaGo_10orion_core14snake_renderer21draw_snake_head_marksNtNtB4_6render16RecordingDisplayEB4_
FN:12,_RINvNtCs20Ygd6RoaGo_10orion_core14snake_renderer6renderNtNtB4_6render16RecordingDisplayEB4_
FN:340,_RINvNtCs20Ygd6RoaGo_10orion_core14snake_renderer8draw_hudNtNtB4_6render16RecordingDisplayEB4_
FN:281,_RINvNtCs20Ygd6RoaGo_10orion_core14snake_renderer9draw_foodNtNtB4_6render16RecordingDisplayEB4_
FN:106,_RNvNtCs20Ygd6RoaGo_10orion_core14snake_renderer17direction_between
FN:372,_RNvNtNtCs20Ygd6RoaGo_10orion_core14snake_renderer5tests13start_playing
FN:412,_RNvNtNtCs20Ygd6RoaGo_10orion_core14snake_renderer5testss_22render_game_over_state
FN:566,_RNvNtNtCs20Ygd6RoaGo_10orion_core14snake_renderer5testss_25draw_food_skips_off_board
FN:427,_RNvNtNtCs20Ygd6RoaGo_10orion_core14snake_renderer5testss_27render_paused_state_classic
FN:504,_RNvNtNtCs20Ygd6RoaGo_10orion_core14snake_renderer5testss_31render_hud_draws_score_and_best
FN:442,_RNvNtNtCs20Ygd6RoaGo_10orion_core14snake_renderer5testss_31render_pause_menu_draws_options
FN:559,_RNvNtNtCs20Ygd6RoaGo_10orion_core14snake_renderer5testss_32clear_board_cell_skips_off_board
FN:515,_RNvNtNtCs20Ygd6RoaGo_10orion_core14snake_renderer5testss_32direction_between_all_directions
FN:547,_RNvNtNtCs20Ygd6RoaGo_10orion_core14snake_renderer5testss_34direction_between_wraps_vertically
FN:535,_RNvNtNtCs20Ygd6RoaGo_10orion_core14snake_renderer5testss_36direction_between_wraps_horizontally
FN:453,_RNvNtNtCs20Ygd6RoaGo_10orion_core14snake_renderer5testss_36render_pause_menu_with_exit_selected
FN:395,_RNvNtNtCs20Ygd6RoaGo_10orion_core14snake_renderer5testss_42playing_render_draws_bitmap_free_pixel_art
FN:381,_RNvNtNtCs20Ygd6RoaGo_10orion_core14snake_renderer5testss_43start_screen_records_flush_and_title_pixels
FN:464,_RNvNtNtCs20Ygd6RoaGo_10orion_core14snake_renderer5testss_44render_tick_delta_draws_head_and_clears_tail
FN:490,_RNvNtNtCs20Ygd6RoaGo_10orion_core14snake_renderer5testss_46render_tick_delta_with_growth_skips_tail_clear
FN:478,_RNvNtNtCs20Ygd6RoaGo_10orion_core14snake_renderer5testss_47render_tick_delta_with_score_change_redraws_hud
FNDA:877,_RNCNvNtNtCs20Ygd6RoaGo_10orion_core14snake_renderer5testss_42playing_render_draws_bitmap_free_pixel_art0B7_
FNDA:2,_RINvNtCs20Ygd6RoaGo_10orion_core14snake_renderer10render_hudNtNtB4_6render16RecordingDisplayEB4_
FNDA:15,_RINvNtCs20Ygd6RoaGo_10orion_core14snake_renderer15draw_snake_bodyNtNtB4_6render16RecordingDisplayEB4_
FNDA:9,_RINvNtCs20Ygd6RoaGo_10orion_core14snake_renderer15draw_snake_headNtNtB4_6render16RecordingDisplayEB4_
FNDA:9,_RINvNtCs20Ygd6RoaGo_10orion_core14snake_renderer15draw_snake_tailNtNtB4_6render16RecordingDisplayEB4_
FNDA:45,_RINvNtCs20Ygd6RoaGo_10orion_core14snake_renderer16clear_board_cellNtNtB4_6render16RecordingDisplayEB4_
FNDA:1,_RINvNtCs20Ygd6RoaGo_10orion_core14snake_renderer17draw_start_screenNtNtB4_6render16RecordingDisplayEB4_
FNDA:3,_RINvNtCs20Ygd6RoaGo_10orion_core14snake_renderer17render_pause_menuNtNtB4_6render16RecordingDisplayEB4_
FNDA:3,_RINvNtCs20Ygd6RoaGo_10orion_core14snake_renderer17render_tick_deltaNtNtB4_6render16RecordingDisplayEB4_
FNDA:15,_RINvNtCs20Ygd6RoaGo_10orion_core14snake_renderer18draw_snake_body_atNtNtB4_6render16RecordingDisplayEB4_
FNDA:24,_RINvNtCs20Ygd6RoaGo_10orion_core14snake_renderer18draw_snake_segmentNtNtB4_6render16RecordingDisplayEB4_
FNDA:30,_RINvNtCs20Ygd6RoaGo_10orion_core14snake_renderer19draw_snake_body_armNtNtB4_6render16RecordingDisplayEB4_
FNDA:9,_RINvNtCs20Ygd6RoaGo_10orion_core14snake_renderer20draw_snake_tail_cellNtNtB4_6render16RecordingDisplayEB4_
FNDA:9,_RINvNtCs20Ygd6RoaGo_10orion_core14snake_renderer21draw_snake_head_marksNtNtB4_6render16RecordingDisplayEB4_
FNDA:7,_RINvNtCs20Ygd6RoaGo_10orion_core14snake_renderer6renderNtNtB4_6render16RecordingDisplayEB4_
FNDA:8,_RINvNtCs20Ygd6RoaGo_10orion_core14snake_renderer8draw_hudNtNtB4_6render16RecordingDisplayEB4_
FNDA:10,_RINvNtCs20Ygd6RoaGo_10orion_core14snake_renderer9draw_foodNtNtB4_6render16RecordingDisplayEB4_
FNDA:47,_RNvNtCs20Ygd6RoaGo_10orion_core14snake_renderer17direction_between
FNDA:6,_RNvNtNtCs20Ygd6RoaGo_10orion_core14snake_renderer5tests13start_playing
FNDA:1,_RNvNtNtCs20Ygd6RoaGo_10orion_core14snake_renderer5testss_22render_game_over_state
FNDA:1,_RNvNtNtCs20Ygd6RoaGo_10orion_core14snake_renderer5testss_25draw_food_skips_off_board
FNDA:1,_RNvNtNtCs20Ygd6RoaGo_10orion_core14snake_renderer5testss_27render_paused_state_classic
FNDA:1,_RNvNtNtCs20Ygd6RoaGo_10orion_core14snake_renderer5testss_31render_hud_draws_score_and_best
FNDA:1,_RNvNtNtCs20Ygd6RoaGo_10orion_core14snake_renderer5testss_31render_pause_menu_draws_options
FNDA:1,_RNvNtNtCs20Ygd6RoaGo_10orion_core14snake_renderer5testss_32clear_board_cell_skips_off_board
FNDA:1,_RNvNtNtCs20Ygd6RoaGo_10orion_core14snake_renderer5testss_32direction_between_all_directions
FNDA:1,_RNvNtNtCs20Ygd6RoaGo_10orion_core14snake_renderer5testss_34direction_between_wraps_vertically
FNDA:1,_RNvNtNtCs20Ygd6RoaGo_10orion_core14snake_renderer5testss_36direction_between_wraps_horizontally
FNDA:1,_RNvNtNtCs20Ygd6RoaGo_10orion_core14snake_renderer5testss_36render_pause_menu_with_exit_selected
FNDA:1,_RNvNtNtCs20Ygd6RoaGo_10orion_core14snake_renderer5testss_42playing_render_draws_bitmap_free_pixel_art
FNDA:1,_RNvNtNtCs20Ygd6RoaGo_10orion_core14snake_renderer5testss_43start_screen_records_flush_and_title_pixels
FNDA:1,_RNvNtNtCs20Ygd6RoaGo_10orion_core14snake_renderer5testss_44render_tick_delta_draws_head_and_clears_tail
FNDA:1,_RNvNtNtCs20Ygd6RoaGo_10orion_core14snake_renderer5testss_46render_tick_delta_with_growth_skips_tail_clear
FNDA:1,_RNvNtNtCs20Ygd6RoaGo_10orion_core14snake_renderer5testss_47render_tick_delta_with_score_change_redraws_hud
FNF:34
FNH:34
DA:12,7
DA:13,7
DA:14,1
DA:15,1
DA:16,1
DA:17,6
DA:19,6
DA:20,6
DA:21,6
DA:25,6
DA:28,84
DA:29,1680
DA:30,1680
DA:31,1680
DA:32,1680
DA:33,1680
DA:34,1680
DA:35,1680
DA:36,1680
DA:37,1680
DA:38,1680
DA:39,1680
DA:40,1680
DA:41,1680
DA:42,1680
DA:43,1680
DA:44,1680
DA:45,1680
DA:46,1680
DA:49,6
DA:50,24
DA:51,24
DA:52,24
DA:54,6
DA:55,2
DA:56,2
DA:57,2
DA:58,2
DA:59,1
DA:60,1
DA:61,1
DA:62,1
DA:63,1
DA:64,3
DA:66,6
DA:67,7
DA:69,3
DA:70,3
DA:71,3
DA:72,3
DA:73,3
DA:74,3
DA:75,3
DA:76,3
DA:78,2
DA:79,2
DA:80,2
DA:81,2
DA:83,3
DA:84,3
DA:85,3
DA:86,3
DA:87,3
DA:88,3
DA:89,3
DA:90,3
DA:91,3
DA:92,0
DA:93,3
DA:94,3
DA:95,2
DA:96,2
DA:97,3
DA:98,3
DA:99,3
DA:100,3
DA:101,3
DA:102,3
DA:103,3
DA:104,3
DA:106,47
DA:107,47
DA:108,26
DA:109,21
DA:110,17
DA:111,4
DA:112,2
DA:114,2
DA:116,47
DA:118,45
DA:119,45
DA:120,1
DA:121,44
DA:122,44
DA:123,44
DA:124,44
DA:125,44
DA:126,44
DA:127,45
DA:129,24
DA:130,24
DA:131,6
DA:132,18
DA:133,6
DA:134,12
DA:135,12
DA:136,12
DA:137,24
DA:139,15
DA:140,15
DA:141,0
DA:142,0
DA:143,15
DA:144,15
DA:145,15
DA:146,15
DA:147,15
DA:148,15
DA:149,15
DA:151,15
DA:153,15
DA:154,15
DA:155,15
DA:156,15
DA:157,15
DA:158,15
DA:159,15
DA:160,15
DA:161,15
DA:162,15
DA:163,15
DA:164,15
DA:165,15
DA:166,15
DA:167,15
DA:168,15
DA:170,30
DA:171,30
DA:172,0
DA:173,0
DA:174,15
DA:175,15
DA:177,30
DA:179,9
DA:180,9
DA:181,9
DA:182,9
DA:183,9
DA:184,9
DA:185,0
DA:186,0
DA:187,0
DA:188,0
DA:189,0
DA:190,0
DA:191,0
DA:192,0
DA:193,0
DA:194,0
DA:195,0
DA:196,0
DA:197,0
DA:198,0
DA:199,9
DA:200,9
DA:201,9
DA:202,9
DA:203,9
DA:204,9
DA:205,9
DA:206,0
DA:207,0
DA:208,0
DA:209,0
DA:210,0
DA:211,0
DA:212,0
DA:214,9
DA:216,9
DA:217,9
DA:218,0
DA:219,0
DA:220,0
DA:221,0
DA:222,0
DA:223,0
DA:224,0
DA:225,0
DA:226,0
DA:227,0
DA:228,9
DA:229,9
DA:230,9
DA:231,9
DA:232,9
DA:233,0
DA:234,0
DA:235,0
DA:236,0
DA:237,0
DA:239,9
DA:241,9
DA:242,9
DA:243,0
DA:244,0
DA:245,9
DA:246,9
DA:247,9
DA:248,9
DA:249,9
DA:251,9
DA:253,9
DA:254,9
DA:255,9
DA:256,9
DA:257,9
DA:258,0
DA:259,0
DA:260,0
DA:261,0
DA:262,0
DA:263,0
DA:264,0
DA:265,0
DA:266,0
DA:267,0
DA:268,9
DA:269,9
DA:270,9
DA:271,9
DA:272,9
DA:273,0
DA:274,0
DA:275,0
DA:276,0
DA:277,0
DA:279,9
DA:281,10
DA:282,10
DA:283,1
DA:284,9
DA:285,9
DA:286,9
DA:287,9
DA:288,9
DA:289,9
DA:290,9
DA:291,9
DA:292,9
DA:293,9
DA:294,9
DA:295,9
DA:296,9
DA:297,9
DA:298,9
DA:299,10
DA:301,1
DA:302,1
DA:303,1
DA:304,1
DA:305,1
DA:306,1
DA:307,1
DA:308,1
DA:312,1
DA:313,1
DA:314,1
DA:316,1
DA:317,1
DA:321,1
DA:322,1
DA:323,1
DA:325,1
DA:326,1
DA:330,1
DA:331,1
DA:332,1
DA:334,1
DA:335,1
DA:336,1
DA:337,1
DA:338,1
DA:340,8
DA:341,8
DA:342,8
DA:343,8
DA:344,8
DA:345,8
DA:346,8
DA:347,8
DA:348,8
DA:349,8
DA:352,8
DA:356,8
DA:357,8
DA:360,8
DA:364,8
DA:372,6
DA:373,6
DA:374,6
DA:375,6
DA:376,6
DA:377,6
DA:378,6
DA:381,1
DA:382,1
DA:383,1
DA:384,1
DA:385,1
DA:386,1
DA:387,1
DA:388,1
DA:391,1
DA:392,1
DA:395,1
DA:396,1
DA:397,1
DA:398,1
DA:399,1
DA:400,1
DA:401,1
DA:402,1
DA:403,877
DA:409,1
DA:412,1
DA:413,1
DA:414,1
DA:415,1
DA:416,1
DA:417,1
DA:418,1
DA:419,1
DA:420,1
DA:421,1
DA:424,1
DA:427,1
DA:428,1
DA:429,1
DA:430,1
DA:431,1
DA:432,1
DA:433,1
DA:434,1
DA:435,1
DA:436,1
DA:439,1
DA:442,1
DA:443,1
DA:444,1
DA:445,1
DA:446,1
DA:447,1
DA:450,1
DA:453,1
DA:454,1
DA:455,1
DA:456,1
DA:457,1
DA:458,1
DA:461,1
DA:464,1
DA:465,1
DA:466,1
DA:467,1
DA:468,1
DA:469,1
DA:470,1
DA:471,1
DA:472,1
DA:475,1
DA:478,1
DA:479,1
DA:480,1
DA:481,1
DA:482,1
DA:483,1
DA:484,1
DA:487,1
DA:490,1
DA:491,1
DA:492,1
DA:493,1
DA:494,1
DA:495,1
DA:496,1
DA:497,1
DA:498,1
DA:501,1
DA:504,1
DA:505,1
DA:506,1
DA:507,1
DA:508,1
DA:509,1
DA:512,1
DA:515,1
DA:516,1
DA:517,1
DA:520,1
DA:521,1
DA:524,1
DA:525,1
DA:528,1
DA:529,1
DA:532,1
DA:535,1
DA:536,1
DA:537,1
DA:540,1
DA:541,1
DA:544,1
DA:547,1
DA:548,1
DA:549,1
DA:552,1
DA:553,1
DA:556,1
DA:559,1
DA:560,1
DA:561,1
DA:562,1
DA:563,1
DA:566,1
DA:567,1
DA:568,1
DA:569,1
DA:570,1
BRF:0
BRH:0
LF:427
LH:369
end_of_record
SF:/Users/ivan/projects/github/esp/orion-rust/crates/orion-core/src/store.rs
FN:124,_RNvNtNtCs20Ygd6RoaGo_10orion_core5store5testss_13game2048_keys
FN:131,_RNvNtNtCs20Ygd6RoaGo_10orion_core5store5testss_31update_only_keeps_better_scores
FN:106,_RNvNtNtCs20Ygd6RoaGo_10orion_core5store5testss_32keys_match_existing_nvs_contract
FN:139,_RNvNtNtCs20Ygd6RoaGo_10orion_core5store5testss_33game2048_best_score_per_grid_size
FN:34,_RNvXs_NtCs20Ygd6RoaGo_10orion_core5storeNtB4_20MemoryHighScoreStoreNtNtCs6sq8b9ugfBC_4core7default7Default7default
FN:24,_RNvMNtCs20Ygd6RoaGo_10orion_core5storeNtB2_20MemoryHighScoreStore3new
FN:76,_RNvNtCs20Ygd6RoaGo_10orion_core5store14high_score_key
FN:72,_RNvNtCs20Ygd6RoaGo_10orion_core5store16high_score_index
FN:90,_RNvNtCs20Ygd6RoaGo_10orion_core5store18game2048_score_key
FN:40,_RNvXs0_NtCs20Ygd6RoaGo_10orion_core5storeNtB5_20MemoryHighScoreStoreNtB5_14HighScoreStore10best_score
FN:44,_RNvXs0_NtCs20Ygd6RoaGo_10orion_core5storeNtB5_20MemoryHighScoreStoreNtB5_14HighScoreStore16update_if_better
FN:61,_RNvXs0_NtCs20Ygd6RoaGo_10orion_core5storeNtB5_20MemoryHighScoreStoreNtB5_14HighScoreStore19game2048_best_score
FN:65,_RNvXs0_NtCs20Ygd6RoaGo_10orion_core5storeNtB5_20MemoryHighScoreStoreNtB5_14HighScoreStore26update_game2048_best_score
FN:51,_RNvXs0_NtCs20Ygd6RoaGo_10orion_core5storeNtB5_20MemoryHighScoreStoreNtB5_14HighScoreStore28flags_death_match_best_score
FN:55,_RNvXs0_NtCs20Ygd6RoaGo_10orion_core5storeNtB5_20MemoryHighScoreStoreNtB5_14HighScoreStore35update_flags_death_match_best_score
FNDA:1,_RNvNtNtCs20Ygd6RoaGo_10orion_core5store5testss_13game2048_keys
FNDA:1,_RNvNtNtCs20Ygd6RoaGo_10orion_core5store5testss_31update_only_keeps_better_scores
FNDA:1,_RNvNtNtCs20Ygd6RoaGo_10orion_core5store5testss_32keys_match_existing_nvs_contract
FNDA:1,_RNvNtNtCs20Ygd6RoaGo_10orion_core5store5testss_33game2048_best_score_per_grid_size
FNDA:0,_RNvXs_NtCs20Ygd6RoaGo_10orion_core5storeNtB4_20MemoryHighScoreStoreNtNtCs6sq8b9ugfBC_4core7default7Default7default
FNDA:82,_RNvMNtCs20Ygd6RoaGo_10orion_core5storeNtB2_20MemoryHighScoreStore3new
FNDA:8,_RNvNtCs20Ygd6RoaGo_10orion_core5store14high_score_key
FNDA:51,_RNvNtCs20Ygd6RoaGo_10orion_core5store16high_score_index
FNDA:3,_RNvNtCs20Ygd6RoaGo_10orion_core5store18game2048_score_key
FNDA:48,_RNvXs0_NtCs20Ygd6RoaGo_10orion_core5storeNtB5_20MemoryHighScoreStoreNtB5_14HighScoreStore10best_score
FNDA:3,_RNvXs0_NtCs20Ygd6RoaGo_10orion_core5storeNtB5_20MemoryHighScoreStoreNtB5_14HighScoreStore16update_if_better
FNDA:28,_RNvXs0_NtCs20Ygd6RoaGo_10orion_core5storeNtB5_20MemoryHighScoreStoreNtB5_14HighScoreStore19game2048_best_score
FNDA:7,_RNvXs0_NtCs20Ygd6RoaGo_10orion_core5storeNtB5_20MemoryHighScoreStoreNtB5_14HighScoreStore26update_game2048_best_score
FNDA:42,_RNvXs0_NtCs20Ygd6RoaGo_10orion_core5storeNtB5_20MemoryHighScoreStoreNtB5_14HighScoreStore28flags_death_match_best_score
FNDA:4,_RNvXs0_NtCs20Ygd6RoaGo_10orion_core5storeNtB5_20MemoryHighScoreStoreNtB5_14HighScoreStore35update_flags_death_match_best_score
FNF:15
FNH:14
DA:24,82
DA:25,82
DA:26,82
DA:27,82
DA:28,82
DA:29,82
DA:30,82
DA:34,0
DA:35,0
DA:36,0
DA:40,48
DA:41,48
DA:42,48
DA:44,3
DA:45,3
DA:46,3
DA:47,2
DA:48,2
DA:49,3
DA:51,42
DA:52,42
DA:53,42
DA:55,4
DA:56,4
DA:57,0
DA:58,4
DA:59,4
DA:61,28
DA:62,28
DA:63,28
DA:65,7
DA:66,7
DA:67,5
DA:68,5
DA:69,7
DA:72,51
DA:73,51
DA:74,51
DA:76,8
DA:77,8
DA:78,1
DA:79,1
DA:80,1
DA:81,1
DA:82,1
DA:83,1
DA:84,1
DA:85,1
DA:86,0
DA:88,8
DA:90,3
DA:91,3
DA:92,1
DA:93,1
DA:94,1
DA:95,0
DA:97,3
DA:106,1
DA:107,1
DA:108,1
DA:110,1
DA:112,1
DA:113,1
DA:114,1
DA:115,1
DA:116,1
DA:117,1
DA:118,1
DA:121,1
DA:124,1
DA:125,1
DA:126,1
DA:127,1
DA:128,1
DA:131,1
DA:132,1
DA:133,1
DA:134,1
DA:135,1
DA:136,1
DA:139,1
DA:140,1
DA:141,1
DA:142,1
DA:143,1
DA:144,1
DA:145,1
DA:147,1
DA:148,1
DA:150,1
DA:151,1
DA:152,1
BRF:0
BRH:0
LF:92
LH:86
end_of_record
SF:/Users/ivan/projects/github/esp/orion-rust/crates/orion-core/src/tetris.rs
FN:617,_RNCNvNtNtCs20Ygd6RoaGo_10orion_core6tetris5testss_42tick_locks_piece_at_bottom_and_spawns_next0B7_
FN:730,_RNvNtNtCs20Ygd6RoaGo_10orion_core6tetris5testss_20soft_drop_adds_score
FN:704,_RNvNtNtCs20Ygd6RoaGo_10orion_core6tetris5testss_26cycle_pause_action_toggles
FN:799,_RNvNtNtCs20Ygd6RoaGo_10orion_core6tetris5testss_26level_increases_with_lines
FN:790,_RNvNtNtCs20Ygd6RoaGo_10orion_core6tetris5testss_26rotation_o_does_not_rotate
FN:830,_RNvNtNtCs20Ygd6RoaGo_10orion_core6tetris5testss_27enter_choosing_resets_state
FN:809,_RNvNtNtCs20Ygd6RoaGo_10orion_core6tetris5testss_28tick_us_decreases_with_level
FN:714,_RNvNtNtCs20Ygd6RoaGo_10orion_core6tetris5testss_29cycle_choosing_action_toggles
FN:754,_RNvNtNtCs20Ygd6RoaGo_10orion_core6tetris5testss_31add_line_score_all_combinations
FN:779,_RNvNtNtCs20Ygd6RoaGo_10orion_core6tetris5testss_31tetromino_cell_value_covers_all
FN:767,_RNvNtNtCs20Ygd6RoaGo_10orion_core6tetris5testss_31tetromino_from_index_covers_all
FN:641,_RNvNtNtCs20Ygd6RoaGo_10orion_core6tetris5testss_32spawn_collision_enters_game_over
FN:696,_RNvNtNtCs20Ygd6RoaGo_10orion_core6tetris5testss_33press_switch_choosing_starts_game
FN:621,_RNvNtNtCs20Ygd6RoaGo_10orion_core6tetris5testss_34clearing_line_adds_score_and_lines
FN:687,_RNvNtNtCs20Ygd6RoaGo_10orion_core6tetris5testss_34press_switch_playing_enters_paused
FN:594,_RNvNtNtCs20Ygd6RoaGo_10orion_core6tetris5testss_34rotation_changes_piece_orientation
FN:740,_RNvNtNtCs20Ygd6RoaGo_10orion_core6tetris5testss_34tick_does_nothing_when_not_playing
FN:665,_RNvNtNtCs20Ygd6RoaGo_10orion_core6tetris5testss_36press_switch_paused_continue_resumes
FN:582,_RNvNtNtCs20Ygd6RoaGo_10orion_core6tetris5testss_38piece_moves_left_and_right_within_well
FN:819,_RNvNtNtCs20Ygd6RoaGo_10orion_core6tetris5testss_40occupied_cell_returns_active_piece_value
FN:676,_RNvNtNtCs20Ygd6RoaGo_10orion_core6tetris5testss_40press_switch_paused_exit_enters_choosing
FN:724,_RNvNtNtCs20Ygd6RoaGo_10orion_core6tetris5testss_42move_active_returns_false_when_not_playing
FN:604,_RNvNtNtCs20Ygd6RoaGo_10orion_core6tetris5testss_42tick_locks_piece_at_bottom_and_spawns_next
FN:748,_RNvNtNtCs20Ygd6RoaGo_10orion_core6tetris5testss_43due_for_tick_returns_false_when_not_playing
FN:655,_RNvNtNtCs20Ygd6RoaGo_10orion_core6tetris5testss_43press_switch_from_game_over_starts_new_game
FN:570,_RNvNtNtCs20Ygd6RoaGo_10orion_core6tetris5testss_49switch_starts_game_with_deterministic_piece_queue
FN:282,_RINvMs2_NtCs20Ygd6RoaGo_10orion_core6tetrisNtB6_10TetrisGame10spawn_nextNtNtB8_3rng11ScriptedRngEB8_
FN:138,_RINvMs2_NtCs20Ygd6RoaGo_10orion_core6tetrisNtB6_10TetrisGame12press_switchNtNtB8_3rng11ScriptedRngEB8_
FN:268,_RINvMs2_NtCs20Ygd6RoaGo_10orion_core6tetrisNtB6_10TetrisGame14start_new_gameNtNtB8_3rng11ScriptedRngEB8_
FN:190,_RINvMs2_NtCs20Ygd6RoaGo_10orion_core6tetrisNtB6_10TetrisGame4tickNtNtB8_3rng11ScriptedRngEB8_
FN:395,_RINvNtCs20Ygd6RoaGo_10orion_core6tetris11random_kindNtNtB4_3rng11ScriptedRngEB4_
FN:52,_RNvMNtCs20Ygd6RoaGo_10orion_core6tetrisNtB2_9Tetromino10cell_value
FN:40,_RNvMNtCs20Ygd6RoaGo_10orion_core6tetrisNtB2_9Tetromino10from_index
FN:86,_RNvMs0_NtCs20Ygd6RoaGo_10orion_core6tetrisNtB5_11TetrisPiece5cells
FN:290,_RNvMs2_NtCs20Ygd6RoaGo_10orion_core6tetrisNtB5_10TetrisGame10try_offset
FN:337,_RNvMs2_NtCs20Ygd6RoaGo_10orion_core6tetrisNtB5_10TetrisGame11lock_active
FN:206,_RNvMs2_NtCs20Ygd6RoaGo_10orion_core6tetrisNtB5_10TetrisGame11mark_ticked
FN:169,_RNvMs2_NtCs20Ygd6RoaGo_10orion_core6tetrisNtB5_10TetrisGame11move_active
FN:202,_RNvMs2_NtCs20Ygd6RoaGo_10orion_core6tetrisNtB5_10TetrisGame12due_for_tick
FN:214,_RNvMs2_NtCs20Ygd6RoaGo_10orion_core6tetrisNtB5_10TetrisGame12pause_action
FN:257,_RNvMs2_NtCs20Ygd6RoaGo_10orion_core6tetrisNtB5_10TetrisGame13occupied_cell
FN:369,_RNvMs2_NtCs20Ygd6RoaGo_10orion_core6tetrisNtB5_10TetrisGame14add_line_score
FN:132,_RNvMs2_NtCs20Ygd6RoaGo_10orion_core6tetrisNtB5_10TetrisGame14enter_choosing
FN:218,_RNvMs2_NtCs20Ygd6RoaGo_10orion_core6tetrisNtB5_10TetrisGame15choosing_action
FN:304,_RNvMs2_NtCs20Ygd6RoaGo_10orion_core6tetrisNtB5_10TetrisGame16rotate_clockwise
FN:162,_RNvMs2_NtCs20Ygd6RoaGo_10orion_core6tetrisNtB5_10TetrisGame18cycle_pause_action
FN:348,_RNvMs2_NtCs20Ygd6RoaGo_10orion_core6tetrisNtB5_10TetrisGame21clear_completed_lines
FN:222,_RNvMs2_NtCs20Ygd6RoaGo_10orion_core6tetrisNtB5_10TetrisGame21cycle_choosing_action
FN:253,_RNvMs2_NtCs20Ygd6RoaGo_10orion_core6tetrisNtB5_10TetrisGame4cell
FN:210,_RNvMs2_NtCs20Ygd6RoaGo_10orion_core6tetrisNtB5_10TetrisGame4mode
FN:237,_RNvMs2_NtCs20Ygd6RoaGo_10orion_core6tetrisNtB5_10TetrisGame4next
FN:229,_RNvMs2_NtCs20Ygd6RoaGo_10orion_core6tetrisNtB5_10TetrisGame5board
FN:249,_RNvMs2_NtCs20Ygd6RoaGo_10orion_core6tetrisNtB5_10TetrisGame5level
FN:245,_RNvMs2_NtCs20Ygd6RoaGo_10orion_core6tetrisNtB5_10TetrisGame5lines
FN:241,_RNvMs2_NtCs20Ygd6RoaGo_10orion_core6tetrisNtB5_10TetrisGame5score
FN:233,_RNvMs2_NtCs20Ygd6RoaGo_10orion_core6tetrisNtB5_10TetrisGame6active
FN:380,_RNvMs2_NtCs20Ygd6RoaGo_10orion_core6tetrisNtB5_10TetrisGame7tick_us
FN:325,_RNvMs2_NtCs20Ygd6RoaGo_10orion_core6tetrisNtB5_10TetrisGame8collides
FN:181,_RNvMs2_NtCs20Ygd6RoaGo_10orion_core6tetrisNtB5_10TetrisGame9soft_drop
FN:72,_RNvMs_NtCs20Ygd6RoaGo_10orion_core6tetrisNtB4_11TetrisBlock3new
FN:386,_RNvNtCs20Ygd6RoaGo_10orion_core6tetris11spawn_piece
FN:399,_RNvNtCs20Ygd6RoaGo_10orion_core6tetris12row_complete
FN:420,_RNvNtCs20Ygd6RoaGo_10orion_core6tetris15tetromino_cells
FN:408,_RNvNtCs20Ygd6RoaGo_10orion_core6tetris8copy_row
FN:414,_RNvNtCs20Ygd6RoaGo_10orion_core6tetris9clear_row
FN:111,_RNvXs1_NtCs20Ygd6RoaGo_10orion_core6tetrisNtB5_10TetrisGameNtNtCs6sq8b9ugfBC_4core7default7Default7default
FNDA:185,_RNCNvNtNtCs20Ygd6RoaGo_10orion_core6tetris5testss_42tick_locks_piece_at_bottom_and_spawns_next0B7_
FNDA:1,_RNvNtNtCs20Ygd6RoaGo_10orion_core6tetris5testss_20soft_drop_adds_score
FNDA:1,_RNvNtNtCs20Ygd6RoaGo_10orion_core6tetris5testss_26cycle_pause_action_toggles
FNDA:1,_RNvNtNtCs20Ygd6RoaGo_10orion_core6tetris5testss_26level_increases_with_lines
FNDA:1,_RNvNtNtCs20Ygd6RoaGo_10orion_core6tetris5testss_26rotation_o_does_not_rotate
FNDA:1,_RNvNtNtCs20Ygd6RoaGo_10orion_core6tetris5testss_27enter_choosing_resets_state
FNDA:1,_RNvNtNtCs20Ygd6RoaGo_10orion_core6tetris5testss_28tick_us_decreases_with_level
FNDA:1,_RNvNtNtCs20Ygd6RoaGo_10orion_core6tetris5testss_29cycle_choosing_action_toggles
FNDA:1,_RNvNtNtCs20Ygd6RoaGo_10orion_core6tetris5testss_31add_line_score_all_combinations
FNDA:1,_RNvNtNtCs20Ygd6RoaGo_10orion_core6tetris5testss_31tetromino_cell_value_covers_all
FNDA:1,_RNvNtNtCs20Ygd6RoaGo_10orion_core6tetris5testss_31tetromino_from_index_covers_all
FNDA:1,_RNvNtNtCs20Ygd6RoaGo_10orion_core6tetris5testss_32spawn_collision_enters_game_over
FNDA:1,_RNvNtNtCs20Ygd6RoaGo_10orion_core6tetris5testss_33press_switch_choosing_starts_game
FNDA:1,_RNvNtNtCs20Ygd6RoaGo_10orion_core6tetris5testss_34clearing_line_adds_score_and_lines
FNDA:1,_RNvNtNtCs20Ygd6RoaGo_10orion_core6tetris5testss_34press_switch_playing_enters_paused
FNDA:1,_RNvNtNtCs20Ygd6RoaGo_10orion_core6tetris5testss_34rotation_changes_piece_orientation
FNDA:1,_RNvNtNtCs20Ygd6RoaGo_10orion_core6tetris5testss_34tick_does_nothing_when_not_playing
FNDA:1,_RNvNtNtCs20Ygd6RoaGo_10orion_core6tetris5testss_36press_switch_paused_continue_resumes
FNDA:1,_RNvNtNtCs20Ygd6RoaGo_10orion_core6tetris5testss_38piece_moves_left_and_right_within_well
FNDA:1,_RNvNtNtCs20Ygd6RoaGo_10orion_core6tetris5testss_40occupied_cell_returns_active_piece_value
FNDA:1,_RNvNtNtCs20Ygd6RoaGo_10orion_core6tetris5testss_40press_switch_paused_exit_enters_choosing
FNDA:1,_RNvNtNtCs20Ygd6RoaGo_10orion_core6tetris5testss_42move_active_returns_false_when_not_playing
FNDA:1,_RNvNtNtCs20Ygd6RoaGo_10orion_core6tetris5testss_42tick_locks_piece_at_bottom_and_spawns_next
FNDA:1,_RNvNtNtCs20Ygd6RoaGo_10orion_core6tetris5testss_43due_for_tick_returns_false_when_not_playing
FNDA:1,_RNvNtNtCs20Ygd6RoaGo_10orion_core6tetris5testss_43press_switch_from_game_over_starts_new_game
FNDA:1,_RNvNtNtCs20Ygd6RoaGo_10orion_core6tetris5testss_49switch_starts_game_with_deterministic_piece_queue
FNDA:2,_RINvMs2_NtCs20Ygd6RoaGo_10orion_core6tetrisNtB6_10TetrisGame10spawn_nextNtNtB8_3rng11ScriptedRngEB8_
FNDA:32,_RINvMs2_NtCs20Ygd6RoaGo_10orion_core6tetrisNtB6_10TetrisGame12press_switchNtNtB8_3rng11ScriptedRngEB8_
FNDA:26,_RINvMs2_NtCs20Ygd6RoaGo_10orion_core6tetrisNtB6_10TetrisGame14start_new_gameNtNtB8_3rng11ScriptedRngEB8_
FNDA:22,_RINvMs2_NtCs20Ygd6RoaGo_10orion_core6tetrisNtB6_10TetrisGame4tickNtNtB8_3rng11ScriptedRngEB8_
FNDA:54,_RINvNtCs20Ygd6RoaGo_10orion_core6tetris11random_kindNtNtB4_3rng11ScriptedRngEB4_
FNDA:254,_RNvMNtCs20Ygd6RoaGo_10orion_core6tetrisNtB2_9Tetromino10cell_value
FNDA:62,_RNvMNtCs20Ygd6RoaGo_10orion_core6tetrisNtB2_9Tetromino10from_index
FNDA:2460,_RNvMs0_NtCs20Ygd6RoaGo_10orion_core6tetrisNtB5_11TetrisPiece5cells
FNDA:27,_RNvMs2_NtCs20Ygd6RoaGo_10orion_core6tetrisNtB5_10TetrisGame10try_offset
FNDA:1,_RNvMs2_NtCs20Ygd6RoaGo_10orion_core6tetrisNtB5_10TetrisGame11lock_active
FNDA:1,_RNvMs2_NtCs20Ygd6RoaGo_10orion_core6tetrisNtB5_10TetrisGame11mark_ticked
FNDA:9,_RNvMs2_NtCs20Ygd6RoaGo_10orion_core6tetrisNtB5_10TetrisGame11move_active
FNDA:15,_RNvMs2_NtCs20Ygd6RoaGo_10orion_core6tetrisNtB5_10TetrisGame12due_for_tick
FNDA:6,_RNvMs2_NtCs20Ygd6RoaGo_10orion_core6tetrisNtB5_10TetrisGame12pause_action
FNDA:1401,_RNvMs2_NtCs20Ygd6RoaGo_10orion_core6tetrisNtB5_10TetrisGame13occupied_cell
FNDA:6,_RNvMs2_NtCs20Ygd6RoaGo_10orion_core6tetrisNtB5_10TetrisGame14add_line_score
FNDA:10,_RNvMs2_NtCs20Ygd6RoaGo_10orion_core6tetrisNtB5_10TetrisGame14enter_choosing
FNDA:13,_RNvMs2_NtCs20Ygd6RoaGo_10orion_core6tetrisNtB5_10TetrisGame15choosing_action
FNDA:3,_RNvMs2_NtCs20Ygd6RoaGo_10orion_core6tetrisNtB5_10TetrisGame16rotate_clockwise
FNDA:3,_RNvMs2_NtCs20Ygd6RoaGo_10orion_core6tetrisNtB5_10TetrisGame18cycle_pause_action
FNDA:2,_RNvMs2_NtCs20Ygd6RoaGo_10orion_core6tetrisNtB5_10TetrisGame21clear_completed_lines
FNDA:2,_RNvMs2_NtCs20Ygd6RoaGo_10orion_core6tetrisNtB5_10TetrisGame21cycle_choosing_action
FNDA:1372,_RNvMs2_NtCs20Ygd6RoaGo_10orion_core6tetrisNtB5_10TetrisGame4cell
FNDA:29,_RNvMs2_NtCs20Ygd6RoaGo_10orion_core6tetrisNtB5_10TetrisGame4mode
FNDA:13,_RNvMs2_NtCs20Ygd6RoaGo_10orion_core6tetrisNtB5_10TetrisGame4next
FNDA:7,_RNvMs2_NtCs20Ygd6RoaGo_10orion_core6tetrisNtB5_10TetrisGame5board
FNDA:24,_RNvMs2_NtCs20Ygd6RoaGo_10orion_core6tetrisNtB5_10TetrisGame5level
FNDA:13,_RNvMs2_NtCs20Ygd6RoaGo_10orion_core6tetrisNtB5_10TetrisGame5lines
FNDA:21,_RNvMs2_NtCs20Ygd6RoaGo_10orion_core6tetrisNtB5_10TetrisGame5score
FNDA:15,_RNvMs2_NtCs20Ygd6RoaGo_10orion_core6tetrisNtB5_10TetrisGame6active
FNDA:13,_RNvMs2_NtCs20Ygd6RoaGo_10orion_core6tetrisNtB5_10TetrisGame7tick_us
FNDA:57,_RNvMs2_NtCs20Ygd6RoaGo_10orion_core6tetrisNtB5_10TetrisGame8collides
FNDA:2,_RNvMs2_NtCs20Ygd6RoaGo_10orion_core6tetrisNtB5_10TetrisGame9soft_drop
FNDA:19688,_RNvMs_NtCs20Ygd6RoaGo_10orion_core6tetrisNtB4_11TetrisBlock3new
FNDA:28,_RNvNtCs20Ygd6RoaGo_10orion_core6tetris11spawn_piece
FNDA:40,_RNvNtCs20Ygd6RoaGo_10orion_core6tetris12row_complete
FNDA:2462,_RNvNtCs20Ygd6RoaGo_10orion_core6tetris15tetromino_cells
FNDA:19,_RNvNtCs20Ygd6RoaGo_10orion_core6tetris8copy_row
FNDA:1,_RNvNtCs20Ygd6RoaGo_10orion_core6tetris9clear_row
FNDA:35,_RNvXs1_NtCs20Ygd6RoaGo_10orion_core6tetrisNtB5_10TetrisGameNtNtCs6sq8b9ugfBC_4core7default7Default7default
FNF:66
FNH:66
DA:40,62
DA:41,62
DA:42,13
DA:43,34
DA:44,8
DA:45,2
DA:46,1
DA:47,1
DA:48,3
DA:50,62
DA:52,254
DA:53,254
DA:54,27
DA:55,222
DA:56,1
DA:57,1
DA:58,1
DA:59,1
DA:60,1
DA:62,254
DA:72,19688
DA:73,19688
DA:74,19688
DA:86,2460
DA:87,2460
DA:88,2460
DA:89,2460
DA:90,2460
DA:91,2460
DA:92,2460
DA:93,2460
DA:94,2460
DA:111,35
DA:112,35
DA:113,35
DA:114,35
DA:115,35
DA:116,35
DA:117,35
DA:118,35
DA:119,35
DA:120,35
DA:121,35
DA:122,35
DA:123,35
DA:124,35
DA:125,35
DA:126,35
DA:127,35
DA:128,35
DA:132,10
DA:133,10
DA:134,10
DA:135,10
DA:136,10
DA:138,32
DA:139,32
DA:141,26
DA:142,26
DA:145,4
DA:146,4
DA:147,4
DA:150,2
DA:151,1
DA:152,1
DA:153,1
DA:154,1
DA:155,1
DA:157,2
DA:160,32
DA:162,3
DA:163,3
DA:164,2
DA:165,1
DA:167,3
DA:169,9
DA:170,9
DA:171,1
DA:172,8
DA:173,8
DA:174,2
DA:175,2
DA:176,1
DA:177,3
DA:179,9
DA:181,2
DA:182,2
DA:183,2
DA:184,2
DA:186,0
DA:188,2
DA:190,22
DA:191,22
DA:192,1
DA:193,21
DA:194,21
DA:195,1
DA:196,1
DA:197,1
DA:198,1
DA:199,20
DA:200,22
DA:202,15
DA:203,15
DA:204,15
DA:206,1
DA:207,1
DA:208,1
DA:210,29
DA:211,29
DA:212,29
DA:214,6
DA:215,6
DA:216,6
DA:218,13
DA:219,13
DA:220,13
DA:222,2
DA:223,2
DA:224,1
DA:225,1
DA:227,2
DA:229,7
DA:230,7
DA:231,7
DA:233,15
DA:234,15
DA:235,15
DA:237,13
DA:238,13
DA:239,13
DA:241,21
DA:242,21
DA:243,21
DA:245,13
DA:246,13
DA:247,13
DA:249,24
DA:250,24
DA:251,24
DA:253,1372
DA:254,1372
DA:255,1372
DA:257,1401
DA:258,1401
DA:259,1401
DA:260,5559
DA:261,5559
DA:262,29
DA:263,5530
DA:265,1372
DA:266,1401
DA:268,26
DA:269,26
DA:270,26
DA:271,26
DA:272,26
DA:273,26
DA:274,26
DA:275,26
DA:276,26
DA:277,26
DA:278,0
DA:279,26
DA:280,26
DA:282,2
DA:283,2
DA:284,2
DA:285,2
DA:286,1
DA:287,1
DA:288,2
DA:290,27
DA:291,27
DA:292,27
DA:293,27
DA:294,27
DA:295,27
DA:296,27
DA:297,1
DA:299,26
DA:300,26
DA:302,27
DA:304,3
DA:305,3
DA:306,1
DA:307,2
DA:308,2
DA:309,2
DA:310,2
DA:311,2
DA:312,2
DA:313,2
DA:314,2
DA:315,2
DA:316,2
DA:317,2
DA:318,2
DA:319,2
DA:320,0
DA:322,0
DA:323,3
DA:325,57
DA:326,224
DA:327,224
DA:328,1
DA:329,223
DA:330,223
DA:331,1
DA:332,222
DA:334,55
DA:335,57
DA:337,1
DA:338,4
DA:339,4
DA:340,0
DA:341,0
DA:342,4
DA:343,4
DA:344,4
DA:346,1
DA:348,2
DA:349,2
DA:350,2
DA:351,40
DA:352,40
DA:353,1
DA:354,1
DA:355,39
DA:356,39
DA:357,19
DA:358,20
DA:359,39
DA:361,3
DA:362,1
DA:363,1
DA:364,1
DA:365,2
DA:366,2
DA:367,2
DA:369,6
DA:370,6
DA:371,2
DA:372,1
DA:373,1
DA:374,1
DA:375,1
DA:377,6
DA:378,6
DA:380,13
DA:381,13
DA:382,13
DA:383,13
DA:386,28
DA:387,28
DA:388,28
DA:389,28
DA:390,28
DA:391,28
DA:392,28
DA:393,28
DA:395,54
DA:396,54
DA:397,54
DA:399,40
DA:400,49
DA:401,49
DA:402,39
DA:403,10
DA:405,1
DA:406,40
DA:408,19
DA:409,190
DA:410,190
DA:411,190
DA:412,19
DA:414,1
DA:415,10
DA:416,10
DA:417,10
DA:418,1
DA:420,2462
DA:421,2462
DA:422,2462
DA:423,1216
DA:424,1014
DA:425,1014
DA:426,1014
DA:427,1014
DA:428,1014
DA:429,1014
DA:430,202
DA:431,202
DA:432,202
DA:433,202
DA:434,202
DA:435,202
DA:436,0
DA:437,0
DA:438,0
DA:439,0
DA:440,0
DA:441,0
DA:442,0
DA:443,0
DA:444,0
DA:445,0
DA:446,0
DA:447,0
DA:449,1243
DA:450,1243
DA:451,1243
DA:452,1243
DA:453,1243
DA:454,1243
DA:455,3
DA:456,3
DA:457,3
DA:458,3
DA:459,3
DA:460,3
DA:461,3
DA:462,0
DA:463,0
DA:464,0
DA:465,0
DA:466,0
DA:467,0
DA:468,0
DA:469,0
DA:470,0
DA:471,0
DA:472,0
DA:473,0
DA:474,0
DA:475,0
DA:476,0
DA:477,0
DA:478,0
DA:479,0
DA:481,0
DA:482,0
DA:483,0
DA:484,0
DA:485,0
DA:486,0
DA:487,0
DA:488,0
DA:489,0
DA:490,0
DA:491,0
DA:492,0
DA:493,0
DA:495,0
DA:496,0
DA:497,0
DA:498,0
DA:499,0
DA:500,0
DA:501,0
DA:502,0
DA:503,0
DA:504,0
DA:505,0
DA:506,0
DA:507,0
DA:509,0
DA:510,0
DA:511,0
DA:512,0
DA:513,0
DA:514,0
DA:515,0
DA:516,0
DA:517,0
DA:518,0
DA:519,0
DA:520,0
DA:521,0
DA:522,0
DA:523,0
DA:524,0
DA:525,0
DA:526,0
DA:527,0
DA:528,0
DA:529,0
DA:530,0
DA:531,0
DA:532,0
DA:533,0
DA:535,0
DA:536,0
DA:537,0
DA:538,0
DA:539,0
DA:540,0
DA:541,0
DA:542,0
DA:543,0
DA:544,0
DA:545,0
DA:546,0
DA:547,0
DA:548,0
DA:549,0
DA:550,0
DA:551,0
DA:552,0
DA:553,0
DA:554,0
DA:555,0
DA:556,0
DA:557,0
DA:558,0
DA:559,0
DA:562,2462
DA:570,1
DA:571,1
DA:572,1
DA:574,1
DA:576,1
DA:577,1
DA:578,1
DA:579,1
DA:582,1
DA:583,1
DA:584,1
DA:585,1
DA:587,1
DA:588,1
DA:589,1
DA:590,1
DA:591,1
DA:594,1
DA:595,1
DA:596,1
DA:597,1
DA:599,1
DA:600,1
DA:601,1
DA:604,1
DA:605,1
DA:606,1
DA:607,1
DA:609,20
DA:610,20
DA:611,20
DA:613,1
DA:614,1
DA:615,1
DA:616,1
DA:617,185
DA:618,1
DA:621,1
DA:622,1
DA:623,1
DA:624,1
DA:625,10
DA:626,10
DA:627,10
DA:629,1
DA:630,1
DA:632,1
DA:633,1
DA:634,1
DA:635,1
DA:638,1
DA:641,1
DA:642,1
DA:643,1
DA:644,1
DA:645,10
DA:646,10
DA:647,10
DA:649,1
DA:651,1
DA:652,1
DA:655,1
DA:656,1
DA:657,1
DA:658,1
DA:659,1
DA:660,1
DA:661,1
DA:662,1
DA:665,1
DA:666,1
DA:667,1
DA:668,1
DA:669,1
DA:670,1
DA:671,1
DA:672,1
DA:673,1
DA:676,1
DA:677,1
DA:678,1
DA:679,1
DA:680,1
DA:681,1
DA:682,1
DA:683,1
DA:684,1
DA:687,1
DA:688,1
DA:689,1
DA:690,1
DA:691,1
DA:692,1
DA:693,1
DA:696,1
DA:697,1
DA:698,1
DA:699,1
DA:700,1
DA:701,1
DA:704,1
DA:705,1
DA:706,1
DA:707,1
DA:708,1
DA:709,1
DA:710,1
DA:711,1
DA:714,1
DA:715,1
DA:716,1
DA:717,1
DA:718,1
DA:719,1
DA:720,1
DA:721,1
DA:724,1
DA:725,1
DA:726,1
DA:727,1
DA:730,1
DA:731,1
DA:732,1
DA:733,1
DA:734,1
DA:735,1
DA:736,1
DA:737,1
DA:740,1
DA:741,1
DA:742,1
DA:743,1
DA:744,1
DA:745,1
DA:748,1
DA:749,1
DA:750,1
DA:751,1
DA:754,1
DA:755,1
DA:756,1
DA:757,1
DA:758,1
DA:759,1
DA:760,1
DA:761,1
DA:762,1
DA:763,1
DA:764,1
DA:767,1
DA:768,1
DA:769,1
DA:770,1
DA:771,1
DA:772,1
DA:773,1
DA:774,1
DA:775,1
DA:776,1
DA:779,1
DA:780,1
DA:781,1
DA:782,1
DA:783,1
DA:784,1
DA:785,1
DA:786,1
DA:787,1
DA:790,1
DA:791,1
DA:792,1
DA:793,1
DA:794,1
DA:795,1
DA:796,1
DA:799,1
DA:800,1
DA:801,1
DA:802,1
DA:803,1
DA:804,1
DA:805,1
DA:806,1
DA:809,1
DA:810,1
DA:811,1
DA:812,1
DA:813,1
DA:814,1
DA:815,1
DA:816,1
DA:819,1
DA:820,1
DA:821,1
DA:822,1
DA:823,1
DA:824,1
DA:825,1
DA:826,1
DA:827,1
DA:830,1
DA:831,1
DA:832,1
DA:833,1
DA:834,1
DA:835,1
DA:836,1
DA:837,1
DA:838,1
BRF:0
BRH:0
LF:627
LH:515
end_of_record
SF:/Users/ivan/projects/github/esp/orion-rust/crates/orion-core/src/tetris_application.rs
FN:534,_RNvNtNtCs20Ygd6RoaGo_10orion_core18tetris_application5tests40assert_delta_rendered_without_full_clear
FN:374,_RNvNtNtCs20Ygd6RoaGo_10orion_core18tetris_application5testss_26gravity_tick_renders_delta
FN:297,_RNvNtNtCs20Ygd6RoaGo_10orion_core18tetris_application5testss_27joystick_moves_active_piece
FN:499,_RNvNtNtCs20Ygd6RoaGo_10orion_core18tetris_application5testss_30long_switch_pauses_during_play
FN:401,_RNvNtNtCs20Ygd6RoaGo_10orion_core18tetris_application5testss_30pause_exit_returns_to_launcher
FN:336,_RNvNtNtCs20Ygd6RoaGo_10orion_core18tetris_application5testss_32encoder_moves_piece_horizontally
FN:273,_RNvNtNtCs20Ygd6RoaGo_10orion_core18tetris_application5testss_32switch_starts_game_from_choosing
FN:460,_RNvNtNtCs20Ygd6RoaGo_10orion_core18tetris_application5testss_38short_switch_rotates_piece_during_play
FN:537,_RNCNvNtNtCs20Ygd6RoaGo_10orion_core18tetris_application5tests40assert_delta_rendered_without_full_clear0B7_
FN:212,_RNvMNtCs20Ygd6RoaGo_10orion_core18tetris_applicationNtB2_17TetrisApplication16accept_direction
FN:19,_RNvMNtCs20Ygd6RoaGo_10orion_core18tetris_applicationNtB2_17TetrisApplication3new
FN:72,_RNvMNtCs20Ygd6RoaGo_10orion_core18tetris_applicationNtB2_17TetrisApplication4game
FN:30,_RNvMNtCs20Ygd6RoaGo_10orion_core18tetris_applicationNtB2_17TetrisApplication5enter
FN:254,_RNvMs0_NtCs20Ygd6RoaGo_10orion_core18tetris_applicationNtB5_17TetrisRenderState7capture
FN:62,_RINvMNtCs20Ygd6RoaGo_10orion_core18tetris_applicationNtB3_17TetrisApplication11render_fullpEB5_
FN:26,_RNvMNtCs20Ygd6RoaGo_10orion_core18tetris_applicationNtB2_17TetrisApplication5title
FN:239,_RNvXs_NtCs20Ygd6RoaGo_10orion_core18tetris_applicationNtB4_17TetrisApplicationNtNtCs6sq8b9ugfBC_4core7default7Default7default
FN:76,_RINvMNtCs20Ygd6RoaGo_10orion_core18tetris_applicationNtB3_17TetrisApplication12handle_inputNtNtB5_6render16RecordingDisplayNtNtB5_3rng11ScriptedRngEB5_
FN:225,_RINvMNtCs20Ygd6RoaGo_10orion_core18tetris_applicationNtB3_17TetrisApplication12render_deltaNtNtB5_6render16RecordingDisplayEB5_
FN:178,_RINvMNtCs20Ygd6RoaGo_10orion_core18tetris_applicationNtB3_17TetrisApplication19handle_paused_inputNtNtB5_3rng11ScriptedRngEB5_
FN:128,_RINvMNtCs20Ygd6RoaGo_10orion_core18tetris_applicationNtB3_17TetrisApplication20handle_playing_inputNtNtB5_6render16RecordingDisplayNtNtB5_3rng11ScriptedRngEB5_
FN:98,_RINvMNtCs20Ygd6RoaGo_10orion_core18tetris_applicationNtB3_17TetrisApplication21handle_choosing_inputNtNtB5_3rng11ScriptedRngEB5_
FN:35,_RINvMNtCs20Ygd6RoaGo_10orion_core18tetris_applicationNtB3_17TetrisApplication6updateNtNtB5_6render16RecordingDisplayNtNtB5_3rng11ScriptedRngEB5_
FNDA:4,_RNvNtNtCs20Ygd6RoaGo_10orion_core18tetris_application5tests40assert_delta_rendered_without_full_clear
FNDA:1,_RNvNtNtCs20Ygd6RoaGo_10orion_core18tetris_application5testss_26gravity_tick_renders_delta
FNDA:1,_RNvNtNtCs20Ygd6RoaGo_10orion_core18tetris_application5testss_27joystick_moves_active_piece
FNDA:1,_RNvNtNtCs20Ygd6RoaGo_10orion_core18tetris_application5testss_30long_switch_pauses_during_play
FNDA:1,_RNvNtNtCs20Ygd6RoaGo_10orion_core18tetris_application5testss_30pause_exit_returns_to_launcher
FNDA:1,_RNvNtNtCs20Ygd6RoaGo_10orion_core18tetris_application5testss_32encoder_moves_piece_horizontally
FNDA:1,_RNvNtNtCs20Ygd6RoaGo_10orion_core18tetris_application5testss_32switch_starts_game_from_choosing
FNDA:1,_RNvNtNtCs20Ygd6RoaGo_10orion_core18tetris_application5testss_38short_switch_rotates_piece_during_play
FNDA:58,_RNCNvNtNtCs20Ygd6RoaGo_10orion_core18tetris_application5tests40assert_delta_rendered_without_full_clear0B7_
FNDA:1,_RNvMNtCs20Ygd6RoaGo_10orion_core18tetris_applicationNtB2_17TetrisApplication16accept_direction
FNDA:7,_RNvMNtCs20Ygd6RoaGo_10orion_core18tetris_applicationNtB2_17TetrisApplication3new
FNDA:7,_RNvMNtCs20Ygd6RoaGo_10orion_core18tetris_applicationNtB2_17TetrisApplication4game
FNDA:7,_RNvMNtCs20Ygd6RoaGo_10orion_core18tetris_applicationNtB2_17TetrisApplication5enter
FNDA:4,_RNvMs0_NtCs20Ygd6RoaGo_10orion_core18tetris_applicationNtB5_17TetrisRenderState7capture
FNDA:0,_RINvMNtCs20Ygd6RoaGo_10orion_core18tetris_applicationNtB3_17TetrisApplication11render_fullpEB5_
FNDA:0,_RNvMNtCs20Ygd6RoaGo_10orion_core18tetris_applicationNtB2_17TetrisApplication5title
FNDA:0,_RNvXs_NtCs20Ygd6RoaGo_10orion_core18tetris_applicationNtB4_17TetrisApplicationNtNtCs6sq8b9ugfBC_4core7default7Default7default
FNDA:15,_RINvMNtCs20Ygd6RoaGo_10orion_core18tetris_applicationNtB3_17TetrisApplication12handle_inputNtNtB5_6render16RecordingDisplayNtNtB5_3rng11ScriptedRngEB5_
FNDA:4,_RINvMNtCs20Ygd6RoaGo_10orion_core18tetris_applicationNtB3_17TetrisApplication12render_deltaNtNtB5_6render16RecordingDisplayEB5_
FNDA:2,_RINvMNtCs20Ygd6RoaGo_10orion_core18tetris_applicationNtB3_17TetrisApplication19handle_paused_inputNtNtB5_3rng11ScriptedRngEB5_
FNDA:6,_RINvMNtCs20Ygd6RoaGo_10orion_core18tetris_applicationNtB3_17TetrisApplication20handle_playing_inputNtNtB5_6render16RecordingDisplayNtNtB5_3rng11ScriptedRngEB5_
FNDA:7,_RINvMNtCs20Ygd6RoaGo_10orion_core18tetris_applicationNtB3_17TetrisApplication21handle_choosing_inputNtNtB5_3rng11ScriptedRngEB5_
FNDA:15,_RINvMNtCs20Ygd6RoaGo_10orion_core18tetris_applicationNtB3_17TetrisApplication6updateNtNtB5_6render16RecordingDisplayNtNtB5_3rng11ScriptedRngEB5_
FNF:23
FNH:20
DA:19,7
DA:20,7
DA:21,7
DA:22,7
DA:23,7
DA:24,7
DA:26,0
DA:27,0
DA:28,0
DA:30,7
DA:31,7
DA:32,7
DA:33,7
DA:35,15
DA:36,15
DA:37,15
DA:38,15
DA:39,15
DA:40,15
DA:41,15
DA:42,15
DA:43,15
DA:44,1
DA:45,14
DA:47,14
DA:48,1
DA:49,1
DA:50,1
DA:51,1
DA:52,1
DA:53,1
DA:54,1
DA:55,0
DA:56,0
DA:57,13
DA:59,14
DA:60,15
DA:62,0
DA:63,0
DA:64,0
DA:66,0
DA:68,0
DA:70,0
DA:72,7
DA:73,7
DA:74,7
DA:76,15
DA:77,15
DA:78,15
DA:79,15
DA:80,15
DA:81,15
DA:82,15
DA:83,15
DA:84,7
DA:86,0
DA:87,0
DA:88,0
DA:90,0
DA:93,6
DA:94,2
DA:96,15
DA:98,7
DA:99,7
DA:100,7
DA:101,7
DA:102,7
DA:103,7
DA:104,7
DA:105,0
DA:106,0
DA:107,7
DA:108,7
DA:109,0
DA:110,0
DA:114,0
DA:115,0
DA:116,7
DA:117,7
DA:118,7
DA:119,0
DA:120,0
DA:121,7
DA:122,7
DA:123,7
DA:124,0
DA:125,0
DA:126,7
DA:128,6
DA:129,6
DA:130,6
DA:131,6
DA:132,6
DA:133,6
DA:134,6
DA:135,6
DA:136,2
DA:137,2
DA:138,4
DA:140,4
DA:141,1
DA:142,1
DA:143,1
DA:144,1
DA:145,0
DA:146,3
DA:148,3
DA:149,1
DA:150,0
DA:152,1
DA:154,1
DA:155,1
DA:156,1
DA:157,1
DA:158,0
DA:159,2
DA:161,2
DA:162,2
DA:163,2
DA:164,2
DA:166,1
DA:167,1
DA:168,1
DA:169,1
DA:170,1
DA:171,0
DA:172,0
DA:173,1
DA:175,1
DA:176,6
DA:178,2
DA:179,2
DA:180,2
DA:181,2
DA:182,2
DA:183,2
DA:184,2
DA:185,1
DA:186,1
DA:187,1
DA:189,1
DA:190,0
DA:191,0
DA:192,0
DA:196,0
DA:197,0
DA:198,1
DA:200,1
DA:201,1
DA:202,1
DA:203,1
DA:204,0
DA:205,0
DA:206,0
DA:207,0
DA:209,0
DA:210,2
DA:212,1
DA:213,1
DA:214,0
DA:216,1
DA:218,1
DA:219,0
DA:220,1
DA:221,1
DA:222,1
DA:223,1
DA:225,4
DA:226,4
DA:227,4
DA:228,4
DA:229,4
DA:230,4
DA:231,4
DA:232,4
DA:233,4
DA:235,4
DA:239,0
DA:240,0
DA:241,0
DA:254,4
DA:255,4
DA:256,4
DA:257,4
DA:258,4
DA:259,4
DA:260,4
DA:261,4
DA:262,4
DA:273,1
DA:274,1
DA:275,1
DA:276,1
DA:277,1
DA:279,1
DA:280,1
DA:281,1
DA:282,1
DA:283,1
DA:284,1
DA:285,1
DA:286,1
DA:287,1
DA:288,1
DA:292,1
DA:293,1
DA:294,1
DA:297,1
DA:298,1
DA:299,1
DA:300,1
DA:301,1
DA:302,1
DA:303,1
DA:304,1
DA:305,1
DA:306,1
DA:307,1
DA:308,1
DA:309,1
DA:310,1
DA:311,1
DA:312,1
DA:313,1
DA:314,1
DA:316,1
DA:317,1
DA:318,1
DA:319,1
DA:320,1
DA:321,1
DA:322,1
DA:323,1
DA:324,1
DA:325,1
DA:326,1
DA:330,1
DA:331,1
DA:332,1
DA:333,1
DA:336,1
DA:337,1
DA:338,1
DA:339,1
DA:340,1
DA:341,1
DA:342,1
DA:343,1
DA:344,1
DA:345,1
DA:346,1
DA:347,1
DA:348,1
DA:349,1
DA:350,1
DA:351,1
DA:352,1
DA:353,1
DA:355,1
DA:356,1
DA:357,1
DA:358,1
DA:359,1
DA:360,1
DA:361,1
DA:362,1
DA:363,1
DA:364,1
DA:368,1
DA:369,1
DA:370,1
DA:371,1
DA:374,1
DA:375,1
DA:376,1
DA:377,1
DA:378,1
DA:379,1
DA:380,1
DA:381,1
DA:382,1
DA:383,1
DA:384,1
DA:385,1
DA:386,1
DA:387,1
DA:388,1
DA:389,1
DA:390,1
DA:391,1
DA:393,1
DA:395,1
DA:396,1
DA:397,1
DA:398,1
DA:401,1
DA:402,1
DA:403,1
DA:404,1
DA:405,1
DA:406,1
DA:407,1
DA:408,1
DA:409,1
DA:410,1
DA:411,1
DA:412,1
DA:413,1
DA:414,1
DA:415,1
DA:416,1
DA:417,1
DA:418,1
DA:419,1
DA:420,1
DA:421,1
DA:422,1
DA:423,1
DA:424,1
DA:425,1
DA:426,1
DA:427,1
DA:428,1
DA:429,1
DA:430,1
DA:431,1
DA:432,1
DA:433,1
DA:434,1
DA:435,1
DA:436,1
DA:437,1
DA:438,1
DA:439,1
DA:440,1
DA:441,1
DA:443,1
DA:444,1
DA:445,1
DA:446,1
DA:447,1
DA:448,1
DA:449,1
DA:450,1
DA:451,1
DA:452,1
DA:456,1
DA:457,1
DA:460,1
DA:461,1
DA:462,1
DA:463,1
DA:464,1
DA:465,1
DA:466,1
DA:467,1
DA:468,1
DA:469,1
DA:470,1
DA:471,1
DA:472,1
DA:473,1
DA:474,1
DA:475,1
DA:476,1
DA:477,1
DA:479,1
DA:480,1
DA:481,1
DA:482,1
DA:483,1
DA:484,1
DA:485,1
DA:486,1
DA:487,1
DA:488,1
DA:492,1
DA:493,1
DA:494,1
DA:495,1
DA:496,1
DA:499,1
DA:500,1
DA:501,1
DA:502,1
DA:503,1
DA:504,1
DA:505,1
DA:506,1
DA:507,1
DA:508,1
DA:509,1
DA:510,1
DA:511,1
DA:512,1
DA:513,1
DA:514,1
DA:515,1
DA:517,1
DA:518,1
DA:519,1
DA:520,1
DA:521,1
DA:522,1
DA:523,1
DA:524,1
DA:525,1
DA:526,1
DA:530,1
DA:531,1
DA:532,1
DA:534,4
DA:535,4
DA:536,4
DA:537,58
DA:548,4
DA:549,4
DA:552,4
BRF:0
BRH:0
LF:418
LH:373
end_of_record
SF:/Users/ivan/projects/github/esp/orion-rust/crates/orion-core/src/tetris_renderer.rs
FN:444,_RNCNvNtNtCs20Ygd6RoaGo_10orion_core15tetris_renderer5testss_41render_play_delta_skips_full_screen_clear0B7_
FN:408,_RNCNvNtNtCs20Ygd6RoaGo_10orion_core15tetris_renderer5testss_42render_playing_draws_rotated_portrait_well0B7_
FN:310,_RNvNtCs20Ygd6RoaGo_10orion_core15tetris_renderer11piece_color
FN:299,_RNvNtCs20Ygd6RoaGo_10orion_core15tetris_renderer13occupied_cell
FN:352,_RNvNtCs20Ygd6RoaGo_10orion_core15tetris_renderer21rotate_rect_clockwise
FN:188,_RINvNtCs20Ygd6RoaGo_10orion_core15tetris_renderer10draw_linesINtB2_16RotatedClockwiseNtNtB4_6render16RecordingDisplayEEB4_
FN:182,_RINvNtCs20Ygd6RoaGo_10orion_core15tetris_renderer10draw_scoreINtB2_16RotatedClockwiseNtNtB4_6render16RecordingDisplayEEB4_
FN:154,_RINvNtCs20Ygd6RoaGo_10orion_core15tetris_renderer10render_hudINtB2_16RotatedClockwiseNtNtB4_6render16RecordingDisplayEEB4_
FN:203,_RINvNtCs20Ygd6RoaGo_10orion_core15tetris_renderer11render_wellINtB2_16RotatedClockwiseNtNtB4_6render16RecordingDisplayEEB4_
FN:323,_RINvNtCs20Ygd6RoaGo_10orion_core15tetris_renderer14clear_portraitINtB2_16RotatedClockwiseNtNtB4_6render16RecordingDisplayEEB4_
FN:229,_RINvNtCs20Ygd6RoaGo_10orion_core15tetris_renderer15draw_empty_cellINtB2_16RotatedClockwiseNtNtB4_6render16RecordingDisplayEEB4_
FN:252,_RINvNtCs20Ygd6RoaGo_10orion_core15tetris_renderer15draw_next_pieceINtB2_16RotatedClockwiseNtNtB4_6render16RecordingDisplayEEB4_
FN:32,_RINvNtCs20Ygd6RoaGo_10orion_core15tetris_renderer15render_choosingNtNtB4_6render16RecordingDisplayEB4_
FN:161,_RINvNtCs20Ygd6RoaGo_10orion_core15tetris_renderer16render_hud_deltaINtB2_16RotatedClockwiseNtNtB4_6render16RecordingDisplayEEB4_
FN:126,_RINvNtCs20Ygd6RoaGo_10orion_core15tetris_renderer17render_pause_menuNtNtB4_6render16RecordingDisplayEB4_
FN:95,_RINvNtCs20Ygd6RoaGo_10orion_core15tetris_renderer17render_play_deltaNtNtB4_6render16RecordingDisplayEB4_
FN:221,_RINvNtCs20Ygd6RoaGo_10orion_core15tetris_renderer19draw_board_positionINtB2_16RotatedClockwiseNtNtB4_6render16RecordingDisplayEEB4_
FN:268,_RINvNtCs20Ygd6RoaGo_10orion_core15tetris_renderer24render_game_over_overlayINtB2_16RotatedClockwiseNtNtB4_6render16RecordingDisplayEEB4_
FN:84,_RINvNtCs20Ygd6RoaGo_10orion_core15tetris_renderer6renderNtNtB4_6render16RecordingDisplayEB4_
FN:237,_RINvNtCs20Ygd6RoaGo_10orion_core15tetris_renderer9draw_cellINtB2_16RotatedClockwiseNtNtB4_6render16RecordingDisplayEEB4_
FN:198,_RINvNtCs20Ygd6RoaGo_10orion_core15tetris_renderer9draw_nextINtB2_16RotatedClockwiseNtNtB4_6render16RecordingDisplayEEB4_
FN:332,_RNvMNtCs20Ygd6RoaGo_10orion_core15tetris_rendererINtB2_16RotatedClockwiseNtNtB4_6render16RecordingDisplayE3newB4_
FN:338,_RNvXs_NtCs20Ygd6RoaGo_10orion_core15tetris_rendererINtB4_16RotatedClockwiseNtNtB6_6render16RecordingDisplayENtB1d_11DisplaySink4pushB6_
FN:462,_RNvNtNtCs20Ygd6RoaGo_10orion_core15tetris_renderer5testss_31render_pause_menu_draws_options
FN:421,_RNvNtNtCs20Ygd6RoaGo_10orion_core15tetris_renderer5testss_41render_play_delta_skips_full_screen_clear
FN:368,_RNvNtNtCs20Ygd6RoaGo_10orion_core15tetris_renderer5testss_42render_choosing_draws_rotated_start_screen
FN:393,_RNvNtNtCs20Ygd6RoaGo_10orion_core15tetris_renderer5testss_42render_playing_draws_rotated_portrait_well
FNDA:59,_RNCNvNtNtCs20Ygd6RoaGo_10orion_core15tetris_renderer5testss_41render_play_delta_skips_full_screen_clear0B7_
FNDA:281,_RNCNvNtNtCs20Ygd6RoaGo_10orion_core15tetris_renderer5testss_42render_playing_draws_rotated_portrait_well0B7_
FNDA:29,_RNvNtCs20Ygd6RoaGo_10orion_core15tetris_renderer11piece_color
FNDA:1000,_RNvNtCs20Ygd6RoaGo_10orion_core15tetris_renderer13occupied_cell
FNDA:2946,_RNvNtCs20Ygd6RoaGo_10orion_core15tetris_renderer21rotate_rect_clockwise
FNDA:2,_RINvNtCs20Ygd6RoaGo_10orion_core15tetris_renderer10draw_linesINtB2_16RotatedClockwiseNtNtB4_6render16RecordingDisplayEEB4_
FNDA:3,_RINvNtCs20Ygd6RoaGo_10orion_core15tetris_renderer10draw_scoreINtB2_16RotatedClockwiseNtNtB4_6render16RecordingDisplayEEB4_
FNDA:2,_RINvNtCs20Ygd6RoaGo_10orion_core15tetris_renderer10render_hudINtB2_16RotatedClockwiseNtNtB4_6render16RecordingDisplayEEB4_
FNDA:2,_RINvNtCs20Ygd6RoaGo_10orion_core15tetris_renderer11render_wellINtB2_16RotatedClockwiseNtNtB4_6render16RecordingDisplayEEB4_
FNDA:3,_RINvNtCs20Ygd6RoaGo_10orion_core15tetris_renderer14clear_portraitINtB2_16RotatedClockwiseNtNtB4_6render16RecordingDisplayEEB4_
FNDA:405,_RINvNtCs20Ygd6RoaGo_10orion_core15tetris_renderer15draw_empty_cellINtB2_16RotatedClockwiseNtNtB4_6render16RecordingDisplayEEB4_
FNDA:2,_RINvNtCs20Ygd6RoaGo_10orion_core15tetris_renderer15draw_next_pieceINtB2_16RotatedClockwiseNtNtB4_6render16RecordingDisplayEEB4_
FNDA:1,_RINvNtCs20Ygd6RoaGo_10orion_core15tetris_renderer15render_choosingNtNtB4_6render16RecordingDisplayEB4_
FNDA:5,_RINvNtCs20Ygd6RoaGo_10orion_core15tetris_renderer16render_hud_deltaINtB2_16RotatedClockwiseNtNtB4_6render16RecordingDisplayEEB4_
FNDA:1,_RINvNtCs20Ygd6RoaGo_10orion_core15tetris_renderer17render_pause_menuNtNtB4_6render16RecordingDisplayEB4_
FNDA:5,_RINvNtCs20Ygd6RoaGo_10orion_core15tetris_renderer17render_play_deltaNtNtB4_6render16RecordingDisplayEB4_
FNDA:426,_RINvNtCs20Ygd6RoaGo_10orion_core15tetris_renderer19draw_board_positionINtB2_16RotatedClockwiseNtNtB4_6render16RecordingDisplayEEB4_
FNDA:0,_RINvNtCs20Ygd6RoaGo_10orion_core15tetris_renderer24render_game_over_overlayINtB2_16RotatedClockwiseNtNtB4_6render16RecordingDisplayEEB4_
FNDA:1,_RINvNtCs20Ygd6RoaGo_10orion_core15tetris_renderer6renderNtNtB4_6render16RecordingDisplayEB4_
FNDA:21,_RINvNtCs20Ygd6RoaGo_10orion_core15tetris_renderer9draw_cellINtB2_16RotatedClockwiseNtNtB4_6render16RecordingDisplayEEB4_
FNDA:2,_RINvNtCs20Ygd6RoaGo_10orion_core15tetris_renderer9draw_nextINtB2_16RotatedClockwiseNtNtB4_6render16RecordingDisplayEEB4_
FNDA:8,_RNvMNtCs20Ygd6RoaGo_10orion_core15tetris_rendererINtB2_16RotatedClockwiseNtNtB4_6render16RecordingDisplayE3newB4_
FNDA:2953,_RNvXs_NtCs20Ygd6RoaGo_10orion_core15tetris_rendererINtB4_16RotatedClockwiseNtNtB6_6render16RecordingDisplayENtB1d_11DisplaySink4pushB6_
FNDA:1,_RNvNtNtCs20Ygd6RoaGo_10orion_core15tetris_renderer5testss_31render_pause_menu_draws_options
FNDA:1,_RNvNtNtCs20Ygd6RoaGo_10orion_core15tetris_renderer5testss_41render_play_delta_skips_full_screen_clear
FNDA:1,_RNvNtNtCs20Ygd6RoaGo_10orion_core15tetris_renderer5testss_42render_choosing_draws_rotated_start_screen
FNDA:1,_RNvNtNtCs20Ygd6RoaGo_10orion_core15tetris_renderer5testss_42render_playing_draws_rotated_portrait_well
FNF:27
FNH:26
DA:32,1
DA:33,1
DA:34,1
DA:35,1
DA:36,1
DA:37,1
DA:41,1
DA:45,1
DA:46,1
DA:50,1
DA:51,1
DA:52,1
DA:54,1
DA:55,1
DA:59,1
DA:60,1
DA:61,1
DA:63,1
DA:64,1
DA:68,1
DA:72,1
DA:73,1
DA:77,1
DA:81,1
DA:82,1
DA:84,1
DA:85,1
DA:86,1
DA:87,1
DA:88,1
DA:89,1
DA:90,0
DA:91,1
DA:92,1
DA:93,1
DA:95,5
DA:96,5
DA:97,5
DA:98,5
DA:99,5
DA:100,5
DA:101,5
DA:102,5
DA:103,5
DA:104,5
DA:105,5
DA:106,5
DA:107,5
DA:108,5
DA:109,5
DA:110,5
DA:113,100
DA:114,1000
DA:115,1000
DA:116,1000
DA:117,1000
DA:118,26
DA:119,974
DA:123,5
DA:124,5
DA:126,1
DA:127,1
DA:128,1
DA:129,1
DA:130,1
DA:131,1
DA:132,1
DA:133,1
DA:134,1
DA:138,1
DA:139,1
DA:140,1
DA:142,1
DA:143,1
DA:147,1
DA:148,1
DA:149,1
DA:151,1
DA:152,1
DA:154,2
DA:155,2
DA:156,2
DA:157,2
DA:158,2
DA:159,2
DA:161,5
DA:162,5
DA:163,5
DA:164,5
DA:165,5
DA:166,5
DA:167,5
DA:168,5
DA:169,1
DA:170,1
DA:171,4
DA:172,5
DA:173,0
DA:174,0
DA:175,5
DA:176,5
DA:177,0
DA:178,0
DA:179,5
DA:180,5
DA:182,3
DA:183,3
DA:184,3
DA:185,3
DA:186,3
DA:188,2
DA:189,2
DA:190,2
DA:191,2
DA:193,2
DA:194,2
DA:195,2
DA:196,2
DA:198,2
DA:199,2
DA:200,2
DA:201,2
DA:203,2
DA:204,2
DA:205,2
DA:206,2
DA:207,2
DA:208,2
DA:209,2
DA:212,2
DA:214,40
DA:215,400
DA:216,400
DA:217,400
DA:219,2
DA:221,426
DA:222,426
DA:223,405
DA:224,405
DA:225,21
DA:226,21
DA:227,426
DA:229,405
DA:230,405
DA:231,405
DA:232,405
DA:233,405
DA:234,405
DA:235,405
DA:237,21
DA:238,21
DA:239,21
DA:240,21
DA:241,21
DA:242,21
DA:243,21
DA:244,21
DA:245,21
DA:246,21
DA:247,21
DA:249,21
DA:250,21
DA:252,2
DA:253,2
DA:254,8
DA:255,8
DA:256,8
DA:257,8
DA:258,8
DA:259,8
DA:260,8
DA:261,8
DA:262,8
DA:263,8
DA:264,8
DA:265,8
DA:266,2
DA:268,0
DA:269,0
DA:270,0
DA:271,0
DA:272,0
DA:273,0
DA:277,0
DA:278,0
DA:279,0
DA:280,0
DA:281,0
DA:282,0
DA:286,0
DA:287,0
DA:288,0
DA:289,0
DA:290,0
DA:291,0
DA:292,0
DA:293,0
DA:297,0
DA:299,1000
DA:300,1000
DA:301,1000
DA:302,3970
DA:303,3970
DA:304,20
DA:305,3950
DA:307,980
DA:308,1000
DA:310,29
DA:311,29
DA:312,15
DA:313,14
DA:314,0
DA:315,0
DA:316,0
DA:317,0
DA:318,0
DA:319,0
DA:321,29
DA:323,3
DA:324,3
DA:325,3
DA:332,8
DA:333,8
DA:334,8
DA:338,2953
DA:339,2953
DA:340,2945
DA:341,2945
DA:342,2945
DA:343,2945
DA:344,2945
DA:345,2945
DA:346,8
DA:347,0
DA:349,2953
DA:352,2946
DA:353,2946
DA:354,2946
DA:355,2946
DA:356,2946
DA:357,2946
DA:358,2946
DA:359,2946
DA:368,1
DA:369,1
DA:370,1
DA:372,1
DA:374,1
DA:375,1
DA:386,1
DA:387,1
DA:390,1
DA:393,1
DA:394,1
DA:395,1
DA:396,1
DA:397,1
DA:399,1
DA:401,1
DA:402,1
DA:403,1
DA:404,1
DA:405,1
DA:406,1
DA:407,1
DA:408,281
DA:410,281
DA:412,281
DA:414,1
DA:415,1
DA:418,1
DA:421,1
DA:422,1
DA:423,1
DA:424,1
DA:425,1
DA:426,1
DA:427,1
DA:428,1
DA:429,1
DA:430,1
DA:432,1
DA:433,1
DA:434,1
DA:435,1
DA:436,1
DA:437,1
DA:438,1
DA:439,1
DA:440,1
DA:443,1
DA:444,59
DA:455,1
DA:456,1
DA:459,1
DA:462,1
DA:463,1
DA:464,1
DA:465,1
DA:466,1
DA:467,1
DA:469,1
DA:471,1
DA:472,1
DA:473,1
DA:476,1
BRF:0
BRH:0
LF:306
LH:273
end_of_record
SF:/Users/ivan/projects/github/esp/orion-rust/crates/orion-core/src/theme.rs
FN:74,_RNvNtNtCs20Ygd6RoaGo_10orion_core5theme5testss_25rgb565_blend_interpolates
FN:53,_RNvNtNtCs20Ygd6RoaGo_10orion_core5theme5testss_28rgb565_matches_cpp_byte_swap
FN:60,_RNvNtNtCs20Ygd6RoaGo_10orion_core5theme5testss_37rgb565_blend_returns_bg_at_alpha_zero
FN:67,_RNvNtNtCs20Ygd6RoaGo_10orion_core5theme5testss_37rgb565_blend_returns_fg_at_alpha_four
FN:6,_RNvNtCs20Ygd6RoaGo_10orion_core5theme12rgb565_blend
FN:1,_RNvNtCs20Ygd6RoaGo_10orion_core5theme6rgb565
FNDA:1,_RNvNtNtCs20Ygd6RoaGo_10orion_core5theme5testss_25rgb565_blend_interpolates
FNDA:1,_RNvNtNtCs20Ygd6RoaGo_10orion_core5theme5testss_28rgb565_matches_cpp_byte_swap
FNDA:1,_RNvNtNtCs20Ygd6RoaGo_10orion_core5theme5testss_37rgb565_blend_returns_bg_at_alpha_zero
FNDA:1,_RNvNtNtCs20Ygd6RoaGo_10orion_core5theme5testss_37rgb565_blend_returns_fg_at_alpha_four
FNDA:12883,_RNvNtCs20Ygd6RoaGo_10orion_core5theme12rgb565_blend
FNDA:9,_RNvNtCs20Ygd6RoaGo_10orion_core5theme6rgb565
FNF:6
FNH:6
DA:1,9
DA:2,9
DA:3,9
DA:4,9
DA:6,12883
DA:7,12883
DA:8,4566
DA:9,2896
DA:10,5421
DA:11,5421
DA:12,5421
DA:13,5421
DA:14,5421
DA:15,5421
DA:16,5421
DA:17,5421
DA:18,5421
DA:19,5421
DA:20,5421
DA:21,5421
DA:22,5421
DA:23,5421
DA:26,12883
DA:53,1
DA:54,1
DA:55,1
DA:56,1
DA:57,1
DA:60,1
DA:61,1
DA:62,1
DA:63,1
DA:64,1
DA:67,1
DA:68,1
DA:69,1
DA:70,1
DA:71,1
DA:74,1
DA:75,1
DA:76,1
DA:77,1
DA:78,1
DA:79,1
DA:80,1
DA:81,1
DA:82,1
DA:83,1
DA:84,1
DA:85,1
BRF:0
BRH:0
LF:50
LH:50
end_of_record
SF:/Users/ivan/projects/github/esp/orion-rust/crates/orion-core/src/ui_widgets.rs
FN:5,_RINvNtCs20Ygd6RoaGo_10orion_core10ui_widgets15draw_option_rowINtNtB4_15tetris_renderer16RotatedClockwiseNtNtB4_6render16RecordingDisplayEEB4_
FN:5,_RINvNtCs20Ygd6RoaGo_10orion_core10ui_widgets15draw_option_rowNtNtB4_6render16RecordingDisplayEB4_
FN:40,_RINvNtCs20Ygd6RoaGo_10orion_core10ui_widgets16draw_menu_buttonNtNtB4_6render16RecordingDisplayEB4_
FN:98,_RNvNtNtCs20Ygd6RoaGo_10orion_core10ui_widgets5testss_33menu_button_draws_button_and_icon
FN:68,_RNvNtNtCs20Ygd6RoaGo_10orion_core10ui_widgets5testss_37selected_row_draws_overlay_and_accent
FN:84,_RNCNvNtNtCs20Ygd6RoaGo_10orion_core10ui_widgets5testss_37selected_row_draws_overlay_and_accent0B7_
FNDA:4,_RINvNtCs20Ygd6RoaGo_10orion_core10ui_widgets15draw_option_rowINtNtB4_15tetris_renderer16RotatedClockwiseNtNtB4_6render16RecordingDisplayEEB4_
FNDA:33,_RINvNtCs20Ygd6RoaGo_10orion_core10ui_widgets15draw_option_rowNtNtB4_6render16RecordingDisplayEB4_
FNDA:6,_RINvNtCs20Ygd6RoaGo_10orion_core10ui_widgets16draw_menu_buttonNtNtB4_6render16RecordingDisplayEB4_
FNDA:1,_RNvNtNtCs20Ygd6RoaGo_10orion_core10ui_widgets5testss_33menu_button_draws_button_and_icon
FNDA:1,_RNvNtNtCs20Ygd6RoaGo_10orion_core10ui_widgets5testss_37selected_row_draws_overlay_and_accent
FNDA:2,_RNCNvNtNtCs20Ygd6RoaGo_10orion_core10ui_widgets5testss_37selected_row_draws_overlay_and_accent0B7_
FNF:5
FNH:5
DA:5,37
DA:6,37
DA:7,37
DA:8,37
DA:9,37
DA:10,37
DA:11,37
DA:12,37
DA:13,37
DA:14,37
DA:15,37
DA:16,37
DA:17,37
DA:18,37
DA:20,37
DA:22,37
DA:23,16
DA:24,21
DA:26,37
DA:27,15
DA:28,15
DA:29,22
DA:30,22
DA:31,22
DA:32,22
DA:33,22
DA:34,22
DA:38,37
DA:40,6
DA:41,6
DA:42,6
DA:43,6
DA:44,6
DA:47,6
DA:49,6
DA:50,6
DA:51,6
DA:52,6
DA:53,6
DA:54,6
DA:55,6
DA:56,6
DA:57,6
DA:60,6
DA:68,1
DA:69,1
DA:70,1
DA:71,1
DA:72,1
DA:83,1
DA:84,2
DA:95,1
DA:98,1
DA:99,1
DA:100,1
DA:101,1
DA:102,1
DA:113,1
BRF:0
BRH:0
LF:58
LH:58
end_of_record